
TP2.elf:     file format elf32-littlenios2
TP2.elf
architecture: nios2:r1, flags 0x00000112:
EXEC_P, HAS_SYMS, D_PAGED
start address 0x04000244

Program Header:
    LOAD off    0x00001000 vaddr 0x04000000 paddr 0x04000000 align 2**12
         filesz 0x00000020 memsz 0x00000020 flags r-x
    LOAD off    0x00001020 vaddr 0x04000020 paddr 0x04000020 align 2**12
         filesz 0x0001ce40 memsz 0x0001ce40 flags r-x
    LOAD off    0x0001de60 vaddr 0x0401ce60 paddr 0x0401ea08 align 2**12
         filesz 0x00001ba8 memsz 0x00001ba8 flags rw-
    LOAD off    0x000205b0 vaddr 0x040205b0 paddr 0x040205b0 align 2**12
         filesz 0x00000000 memsz 0x000094dc flags rw-

Sections:
Idx Name          Size      VMA       LMA       File off  Algn
  0 .entry        00000020  04000000  04000000  00001000  2**5
                  CONTENTS, ALLOC, LOAD, READONLY, CODE
  1 .exceptions   00000224  04000020  04000020  00001020  2**2
                  CONTENTS, ALLOC, LOAD, READONLY, CODE
  2 .text         0001c768  04000244  04000244  00001244  2**2
                  CONTENTS, ALLOC, LOAD, READONLY, CODE
  3 .rodata       000004b4  0401c9ac  0401c9ac  0001d9ac  2**2
                  CONTENTS, ALLOC, LOAD, READONLY, DATA
  4 .rwdata       00001ba8  0401ce60  0401ea08  0001de60  2**2
                  CONTENTS, ALLOC, LOAD, DATA, SMALL_DATA
  5 .bss          000094dc  040205b0  040205b0  000205b0  2**2
                  ALLOC, SMALL_DATA
  6 .sdram        00000000  04029a8c  04029a8c  0001fa08  2**0
                  CONTENTS
  7 .onchip_memory2_0 00000000  08002000  08002000  0001fa08  2**0
                  CONTENTS
  8 .comment      00000023  00000000  00000000  0001fa08  2**0
                  CONTENTS, READONLY
  9 .debug_aranges 000011d0  00000000  00000000  0001fa30  2**3
                  CONTENTS, READONLY, DEBUGGING
 10 .debug_info   000322c8  00000000  00000000  00020c00  2**0
                  CONTENTS, READONLY, DEBUGGING
 11 .debug_abbrev 0000c0b8  00000000  00000000  00052ec8  2**0
                  CONTENTS, READONLY, DEBUGGING
 12 .debug_line   0000fd1a  00000000  00000000  0005ef80  2**0
                  CONTENTS, READONLY, DEBUGGING
 13 .debug_frame  00003748  00000000  00000000  0006ec9c  2**2
                  CONTENTS, READONLY, DEBUGGING
 14 .debug_str    00004e4b  00000000  00000000  000723e4  2**0
                  CONTENTS, READONLY, DEBUGGING
 15 .debug_loc    0001ce8f  00000000  00000000  0007722f  2**0
                  CONTENTS, READONLY, DEBUGGING
 16 .debug_alt_sim_info 00000060  00000000  00000000  000940c0  2**2
                  CONTENTS, READONLY, DEBUGGING
 17 .debug_ranges 00001ba0  00000000  00000000  00094120  2**3
                  CONTENTS, READONLY, DEBUGGING
 18 .thread_model 00000006  00000000  00000000  0009ae95  2**0
                  CONTENTS, READONLY
 19 .cpu          00000003  00000000  00000000  0009ae9b  2**0
                  CONTENTS, READONLY
 20 .qsys         00000001  00000000  00000000  0009ae9e  2**0
                  CONTENTS, READONLY
 21 .simulation_enabled 00000001  00000000  00000000  0009ae9f  2**0
                  CONTENTS, READONLY
 22 .stderr_dev   00000009  00000000  00000000  0009aea0  2**0
                  CONTENTS, READONLY
 23 .stdin_dev    00000009  00000000  00000000  0009aea9  2**0
                  CONTENTS, READONLY
 24 .stdout_dev   00000009  00000000  00000000  0009aeb2  2**0
                  CONTENTS, READONLY
 25 .sopc_system_name 00000005  00000000  00000000  0009aebb  2**0
                  CONTENTS, READONLY
 26 .quartus_project_dir 0000003b  00000000  00000000  0009aec0  2**0
                  CONTENTS, READONLY
 27 .sopcinfo     00073258  00000000  00000000  0009aefb  2**0
                  CONTENTS, READONLY
SYMBOL TABLE:
04000000 l    d  .entry	00000000 .entry
04000020 l    d  .exceptions	00000000 .exceptions
04000244 l    d  .text	00000000 .text
0401c9ac l    d  .rodata	00000000 .rodata
0401ce60 l    d  .rwdata	00000000 .rwdata
040205b0 l    d  .bss	00000000 .bss
04029a8c l    d  .sdram	00000000 .sdram
08002000 l    d  .onchip_memory2_0	00000000 .onchip_memory2_0
00000000 l    d  .comment	00000000 .comment
00000000 l    d  .debug_aranges	00000000 .debug_aranges
00000000 l    d  .debug_info	00000000 .debug_info
00000000 l    d  .debug_abbrev	00000000 .debug_abbrev
00000000 l    d  .debug_line	00000000 .debug_line
00000000 l    d  .debug_frame	00000000 .debug_frame
00000000 l    d  .debug_str	00000000 .debug_str
00000000 l    d  .debug_loc	00000000 .debug_loc
00000000 l    d  .debug_alt_sim_info	00000000 .debug_alt_sim_info
00000000 l    d  .debug_ranges	00000000 .debug_ranges
00000000 l    df *ABS*	00000000 ../TP2_bsp//obj/HAL/src/crt0.o
0400028c l       .text	00000000 alt_after_alt_main
00000000 l    df *ABS*	00000000 alt_irq_handler.c
00000000 l    df *ABS*	00000000 alt_instruction_exception_entry.c
00000000 l    df *ABS*	00000000 hello_ucosii.c
040007e0 l     F .text	000000f4 handle_button_interrupts
040008d4 l     F .text	00000070 init_button_pio
00000000 l    df *ABS*	00000000 lib2-divmod.c
00000000 l    df *ABS*	00000000 fixsfsi.c
00000000 l    df *ABS*	00000000 floatsisf.c
00000000 l    df *ABS*	00000000 floatunsidf.c
00000000 l    df *ABS*	00000000 extendsfdf2.c
00000000 l    df *ABS*	00000000 truncdfsf2.c
00000000 l    df *ABS*	00000000 libgcc2.c
00000000 l    df *ABS*	00000000 libgcc2.c
00000000 l    df *ABS*	00000000 printf.c
00000000 l    df *ABS*	00000000 puts.c
00000000 l    df *ABS*	00000000 rand.c
00000000 l    df *ABS*	00000000 sprintf.c
00000000 l    df *ABS*	00000000 strlen.c
00000000 l    df *ABS*	00000000 vfprintf.c
0401cb4a l     O .rodata	00000010 zeroes.4389
0401cb5a l     O .rodata	00000010 blanks.4388
00000000 l    df *ABS*	00000000 vfprintf.c
0401cb6a l     O .rodata	00000010 zeroes.4404
04005b4c l     F .text	000000bc __sbprintf
0401cb7a l     O .rodata	00000010 blanks.4403
00000000 l    df *ABS*	00000000 wsetup.c
00000000 l    df *ABS*	00000000 dtoa.c
04005d5c l     F .text	00000200 quorem
00000000 l    df *ABS*	00000000 fflush.c
00000000 l    df *ABS*	00000000 findfp.c
0400788c l     F .text	00000008 __fp_unlock
040078a0 l     F .text	0000019c __sinit.part.1
04007a3c l     F .text	00000008 __fp_lock
00000000 l    df *ABS*	00000000 mallocr.c
00000000 l    df *ABS*	00000000 fvwrite.c
00000000 l    df *ABS*	00000000 fwalk.c
00000000 l    df *ABS*	00000000 impure.c
0401ce60 l     O .rwdata	00000424 impure_data
00000000 l    df *ABS*	00000000 locale.c
0401d2a4 l     O .rwdata	00000020 lc_ctype_charset
0401d284 l     O .rwdata	00000020 lc_message_charset
0401d2c4 l     O .rwdata	00000038 lconv
00000000 l    df *ABS*	00000000 makebuf.c
00000000 l    df *ABS*	00000000 mallocr.c
00000000 l    df *ABS*	00000000 memchr.c
00000000 l    df *ABS*	00000000 memcpy.c
00000000 l    df *ABS*	00000000 memmove.c
00000000 l    df *ABS*	00000000 memset.c
00000000 l    df *ABS*	00000000 mprec.c
0401cbac l     O .rodata	0000000c p05.2768
00000000 l    df *ABS*	00000000 mallocr.c
00000000 l    df *ABS*	00000000 s_fpclassify.c
00000000 l    df *ABS*	00000000 sbrkr.c
00000000 l    df *ABS*	00000000 stdio.c
00000000 l    df *ABS*	00000000 strcmp.c
00000000 l    df *ABS*	00000000 vfprintf.c
0401cce0 l     O .rodata	00000010 blanks.4332
0401ccd0 l     O .rodata	00000010 zeroes.4333
00000000 l    df *ABS*	00000000 vfprintf.c
0400c244 l     F .text	000000fc __sprint_r.part.0
0401cd00 l     O .rodata	00000010 blanks.4348
0401ccf0 l     O .rodata	00000010 zeroes.4349
0400d7d0 l     F .text	000000bc __sbprintf
00000000 l    df *ABS*	00000000 writer.c
00000000 l    df *ABS*	00000000 closer.c
00000000 l    df *ABS*	00000000 mallocr.c
00000000 l    df *ABS*	00000000 fclose.c
00000000 l    df *ABS*	00000000 fputwc.c
00000000 l    df *ABS*	00000000 fstatr.c
00000000 l    df *ABS*	00000000 int_errno.c
00000000 l    df *ABS*	00000000 isattyr.c
00000000 l    df *ABS*	00000000 lseekr.c
00000000 l    df *ABS*	00000000 readr.c
00000000 l    df *ABS*	00000000 wbuf.c
00000000 l    df *ABS*	00000000 wcrtomb.c
00000000 l    df *ABS*	00000000 wctomb_r.c
00000000 l    df *ABS*	00000000 libgcc2.c
00000000 l    df *ABS*	00000000 libgcc2.c
00000000 l    df *ABS*	00000000 libgcc2.c
00000000 l    df *ABS*	00000000 adddf3.c
00000000 l    df *ABS*	00000000 divdf3.c
00000000 l    df *ABS*	00000000 eqdf2.c
00000000 l    df *ABS*	00000000 gedf2.c
00000000 l    df *ABS*	00000000 ledf2.c
00000000 l    df *ABS*	00000000 muldf3.c
00000000 l    df *ABS*	00000000 subdf3.c
00000000 l    df *ABS*	00000000 fixdfsi.c
00000000 l    df *ABS*	00000000 floatsidf.c
00000000 l    df *ABS*	00000000 alt_close.c
0401122c l     F .text	0000003c alt_get_errno
00000000 l    df *ABS*	00000000 alt_dev.c
04011338 l     F .text	0000002c alt_dev_null_write
00000000 l    df *ABS*	00000000 alt_errno.c
00000000 l    df *ABS*	00000000 alt_fstat.c
04011364 l     F .text	0000003c alt_get_errno
00000000 l    df *ABS*	00000000 alt_irq_register.c
00000000 l    df *ABS*	00000000 alt_irq_vars.c
00000000 l    df *ABS*	00000000 alt_isatty.c
040115d0 l     F .text	0000003c alt_get_errno
00000000 l    df *ABS*	00000000 alt_load.c
040116b0 l     F .text	00000068 alt_load_section
00000000 l    df *ABS*	00000000 alt_lseek.c
0401179c l     F .text	0000003c alt_get_errno
00000000 l    df *ABS*	00000000 alt_main.c
00000000 l    df *ABS*	00000000 alt_read.c
04011968 l     F .text	0000003c alt_get_errno
00000000 l    df *ABS*	00000000 alt_release_fd.c
00000000 l    df *ABS*	00000000 alt_sbrk.c
0401e980 l     O .rwdata	00000004 heap_end
00000000 l    df *ABS*	00000000 alt_usleep.c
00000000 l    df *ABS*	00000000 alt_write.c
04011cc8 l     F .text	0000003c alt_get_errno
00000000 l    df *ABS*	00000000 alt_env_lock.c
0401e984 l     O .rwdata	00000004 lockid
04020618 l     O .bss	00000004 locks
00000000 l    df *ABS*	00000000 alt_malloc_lock.c
0401e988 l     O .rwdata	00000004 lockid
04020620 l     O .bss	00000004 locks
00000000 l    df *ABS*	00000000 os_core.c
040136f8 l     F .text	00000048 OS_InitMisc
04013740 l     F .text	0000006c OS_InitRdyList
040138ac l     F .text	000000e4 OS_InitTCBList
04013618 l     F .text	000000e0 OS_InitEventList
040137ac l     F .text	00000080 OS_InitTaskIdle
0401382c l     F .text	00000080 OS_InitTaskStat
04013b1c l     F .text	00000074 OS_SchedNew
00000000 l    df *ABS*	00000000 os_dbg.c
00000000 l    df *ABS*	00000000 os_flag.c
0401582c l     F .text	000000f4 OS_FlagTaskRdy
040155ec l     F .text	00000160 OS_FlagBlock
00000000 l    df *ABS*	00000000 os_mbox.c
00000000 l    df *ABS*	00000000 os_mem.c
00000000 l    df *ABS*	00000000 os_q.c
00000000 l    df *ABS*	00000000 os_sem.c
00000000 l    df *ABS*	00000000 os_task.c
00000000 l    df *ABS*	00000000 os_time.c
00000000 l    df *ABS*	00000000 alt_sys_init.c
0401a398 l     F .text	00000034 alt_dev_reg
0401d8ac l     O .rwdata	0000106c jtag_uart
00000000 l    df *ABS*	00000000 altera_avalon_jtag_uart_fd.c
00000000 l    df *ABS*	00000000 altera_avalon_jtag_uart_init.c
0401a710 l     F .text	000002a4 altera_avalon_jtag_uart_irq
0401a9b4 l     F .text	00000104 altera_avalon_jtag_uart_timeout
00000000 l    df *ABS*	00000000 altera_avalon_jtag_uart_ioctl.c
00000000 l    df *ABS*	00000000 altera_avalon_jtag_uart_read.c
00000000 l    df *ABS*	00000000 altera_avalon_jtag_uart_write.c
00000000 l    df *ABS*	00000000 altera_avalon_timer_sc.c
0401b190 l     F .text	00000078 alt_avalon_timer_sc_irq
00000000 l    df *ABS*	00000000 alt_alarm_start.c
00000000 l    df *ABS*	00000000 alt_busy_sleep.c
00000000 l    df *ABS*	00000000 alt_dcache_flush_all.c
00000000 l    df *ABS*	00000000 alt_dev_llist_insert.c
0401b550 l     F .text	0000003c alt_get_errno
00000000 l    df *ABS*	00000000 alt_do_ctors.c
00000000 l    df *ABS*	00000000 alt_do_dtors.c
00000000 l    df *ABS*	00000000 alt_icache_flush_all.c
00000000 l    df *ABS*	00000000 alt_iic.c
00000000 l    df *ABS*	00000000 alt_iic_isr_register.c
00000000 l    df *ABS*	00000000 alt_io_redirect.c
0401b9c4 l     F .text	000000c4 alt_open_fd
00000000 l    df *ABS*	00000000 alt_open.c
0401bb04 l     F .text	0000003c alt_get_errno
0401bb40 l     F .text	000000c4 alt_file_locked
00000000 l    df *ABS*	00000000 alt_tick.c
00000000 l    df *ABS*	00000000 altera_nios2_gen2_irq.c
00000000 l    df *ABS*	00000000 os_cpu_a.o
00000040 l       *ABS*	00000000 OSCtxSw_SWITCH_PC
00000000 l    df *ABS*	00000000 os_cpu_c.c
00000014 l       *ABS*	00000000 OSTCBNext_OFFSET
00000032 l       *ABS*	00000000 OSTCBPrio_OFFSET
00000000 l       *ABS*	00000000 OSTCBStkPtr_OFFSET
00000000 l    df *ABS*	00000000 alt_find_dev.c
00000000 l    df *ABS*	00000000 alt_find_file.c
00000000 l    df *ABS*	00000000 alt_get_fd.c
00000000 l    df *ABS*	00000000 alt_icache_flush.c
00000000 l    df *ABS*	00000000 atexit.c
00000000 l    df *ABS*	00000000 exit.c
00000000 l    df *ABS*	00000000 memcmp.c
00000000 l    df *ABS*	00000000 __atexit.c
00000000 l    df *ABS*	00000000 __call_atexit.c
00000000 l    df *ABS*	00000000 alt_exit.c
04020680 g     O .bss	00000004 alt_instruction_exception_handler
0400a47c g     F .text	00000074 _mprec_log10
0401e9d6 g     O .rwdata	00000002 OSTaskNameSize
0400a568 g     F .text	0000008c __any_on
0400dd6c g     F .text	00000054 _isatty_r
0401cbb8 g     O .rodata	00000028 __mprec_tinytens
040118ac g     F .text	000000bc alt_main
040014b4 g     F .text	000000c0 _puts_r
0402998c g     O .bss	00000100 alt_irq
0400ddc0 g     F .text	00000060 _lseek_r
04016b14 g     F .text	000000cc OS_MemInit
0401ea08 g       *ABS*	00000000 __flash_rwdata_start
0401a338 g     F .text	00000060 OSTimeSet
0400fe64 g     F .text	00000088 .hidden __eqdf2
0401236c g     F .text	00000610 OSEventPendMulti
04029a8c g       *ABS*	00000000 __alt_heap_start
0401c14c g     F .text	00000024 OSTaskCreateHook
040206ac g     O .bss	00002000 task1_stk
0401e940 g     O .rwdata	00000004 sdram
04001478 g     F .text	0000003c printf
0401e9ae g     O .rwdata	00000002 OSMboxEn
040129d4 g     F .text	0000004c OSIntEnter
0400dfd8 g     F .text	0000009c _wcrtomb_r
0400acf8 g     F .text	0000005c __sseek
04007bdc g     F .text	00000010 __sinit
0400de80 g     F .text	00000140 __swbuf_r
040205c8 g     O .bss	00000004 averageTime
0401e9be g     O .rwdata	00000002 OSQEn
040086a4 g     F .text	0000007c _setlocale_r
04007a44 g     F .text	00000068 __sfmoreglue
04012040 g     F .text	000000cc __malloc_unlock
0401c1b4 g     F .text	00000020 OSTaskStatHook
04020628 g     O .bss	00000001 OSLockNesting
0401e9fc g     O .rwdata	00000002 OSDataSize
04020629 g     O .bss	00000001 OSRunning
04009374 g     F .text	0000015c memmove
040205bc g     O .bss	00000004 totalTime
0401c1f4 g     F .text	00000020 OSInitHookBegin
0401e9f4 g     O .rwdata	00000002 OSTmrSize
04007bc4 g     F .text	00000018 _cleanup
040205cc g     O .bss	00000004 mailBox1_2
040095f8 g     F .text	000000a8 _Balloc
0401e948 g     O .rwdata	00000004 timer
04000ef0 g     F .text	00000070 .hidden __fixsfsi
040226ac g     O .bss	00000050 msgQueueTbl
0402062c g     O .bss	00000004 OSIdleCtr
0400feec g     F .text	000000dc .hidden __gtdf2
0401e930 g     O .rwdata	00000004 jtag_uart
0401befc g     F .text	00000024 altera_nios2_gen2_irq_init
0401bfcc g       .text	00000000 OSStartTsk
04013e4c g     F .text	000002d4 OS_TCBInit
04000000 g     F .entry	0000001c __reset
040205d0 g     O .bss	00000004 edge_capture
0401e9fa g     O .rwdata	00000002 OSTmrWheelTblSize
040226fc g     O .bss	0000006c tasks
0401e918 g     O .rwdata	00000004 hex0
04000020 g       *ABS*	00000000 __flash_exceptions_start
0401e99a g     O .rwdata	00000002 OSEventSize
04020630 g     O .bss	00000001 OSPrioHighRdy
0400dd10 g     F .text	0000005c _fstat_r
0401c170 g     F .text	00000024 OSTaskDelHook
04020600 g     O .bss	00000004 errno
040205d4 g     O .bss	00000004 msgQueue_trigger
0400ac74 g     F .text	00000008 __seofread
0401bfac g       .text	00000000 OSStartHighRdy
04018de0 g     F .text	000001e4 OSTaskCreateExt
0400b008 g     F .text	0000123c ___svfiprintf_internal_r
04015134 g     F .text	00000060 OSFlagPendGetFlagsRdy
0401e9da g     O .rwdata	00000002 OSTaskStatStkSize
040142b0 g     F .text	00000308 OSFlagAccept
0401714c g     F .text	000000b8 OSQFlush
04016be0 g     F .text	00000140 OSQAccept
04020610 g     O .bss	00000004 alt_argv
04026918 g       *ABS*	00000000 _gp
04011bb4 g     F .text	00000114 usleep
04000338 g     F .text	0000010c convertTo7segments
04018c34 g     F .text	000001ac OSTaskCreate
04018744 g     F .text	000004f0 OSTaskChangePrio
04000544 g     F .text	00000098 displayNothing
04020624 g     O .bss	00000004 alt_heapsem
04014120 g     F .text	00000190 OSDebugInit
04018fc4 g     F .text	00000344 OSTaskDel
0401d72c g     O .rwdata	00000180 alt_fd_list
04026768 g     O .bss	00000370 OSFlagTbl
0400060c g     F .text	00000090 displayBinaryNumber
04000444 g     F .text	00000100 displayDecimalNumber
0400069c g     F .text	00000030 ledOff
040133f8 g     F .text	000000b8 OS_EventTaskRemove
0401c278 g     F .text	00000090 alt_find_dev
0400922c g     F .text	00000148 memcpy
0401e9c4 g     O .rwdata	00000002 OSRdyTblSize
04007894 g     F .text	0000000c _cleanup_r
04011150 g     F .text	000000dc .hidden __floatsidf
0401ba88 g     F .text	0000007c alt_io_redirect
0400ffc8 g     F .text	000000f4 .hidden __ltdf2
0401c9ac g       *ABS*	00000000 __DTOR_END__
04001574 g     F .text	00000014 puts
0401c57c g     F .text	0000009c alt_exception_cause_generated_bad_addr
0401210c g     F .text	00000120 OSEventNameGet
0401e9a8 g     O .rwdata	00000002 OSFlagMax
0400ab58 g     F .text	00000074 __fpclassifyd
0400a3d8 g     F .text	000000a4 __ratio
04012a20 g     F .text	000000f8 OSIntExit
0400d7b4 g     F .text	0000001c __vfiprintf_internal
0401e9e2 g     O .rwdata	00000002 OSTCBSize
04020631 g     O .bss	00000001 OSPrioCur
0401ac10 g     F .text	000002bc altera_avalon_jtag_uart_read
04001448 g     F .text	00000030 _printf_r
08002000 g       *ABS*	00000000 __alt_mem_onchip_memory2_0
04000e34 g     F .text	00000064 .hidden __udivsi3
0401160c g     F .text	000000a4 isatty
0401e9c8 g     O .rwdata	00000002 OSStkWidth
0401cc08 g     O .rodata	000000c8 __mprec_tens
0401e9bc g     O .rwdata	00000002 OSPtrSize
04008720 g     F .text	0000000c __locale_charset
0401e99c g     O .rwdata	00000002 OSEventTblSize
0401bf20 g       .text	00000000 OSCtxSw
0401c4ec g     F .text	00000090 alt_icache_flush
040205fc g     O .bss	00000004 __malloc_top_pad
04020634 g     O .bss	00000004 OSTCBList
04020604 g     O .bss	00000004 alt_fd_list_lock
0401e954 g     O .rwdata	00000004 __mb_cur_max
04008750 g     F .text	0000000c _localeconv_r
04009a04 g     F .text	0000003c __i2b
04008060 g     F .text	000004bc __sfvwrite_r
04026ad8 g     O .bss	00000c30 OSMemTbl
04020638 g     O .bss	00000001 OSTickStepState
0400abcc g     F .text	00000054 _sbrk_r
0401e9c0 g     O .rwdata	00000002 OSQMax
04027708 g     O .bss	00000800 OSTaskStatStk
04016750 g     F .text	000000f0 OSMemNameGet
0401e9a0 g     O .rwdata	00000002 OSFlagEn
0400de20 g     F .text	00000060 _read_r
0401e9e6 g     O .rwdata	00000002 OSTimeTickHookEn
04015920 g     F .text	000000a4 OS_FlagUnlink
040175fc g     F .text	00000168 OSQPost
0401e974 g     O .rwdata	00000004 alt_max_fd
040139e4 g     F .text	00000068 OS_MemCopy
04013a4c g     F .text	000000d0 OS_Sched
0400da04 g     F .text	000000f0 _fclose_r
04016660 g     F .text	000000f0 OSMemGet
0401637c g     F .text	00000110 OSMboxQuery
040195f0 g     F .text	000001b4 OSTaskNameSet
0400785c g     F .text	00000030 fflush
040205f8 g     O .bss	00000004 __malloc_max_sbrked_mem
0402063c g     O .bss	00000004 OSCtxSwCtr
0401c1d4 g     F .text	00000020 OSTimeTickHook
04011450 g     F .text	00000180 alt_irq_register
0401e9aa g     O .rwdata	00000002 OSFlagNameSize
0400112c g     F .text	00000110 .hidden __extendsfdf2
040134b0 g     F .text	00000100 OS_EventTaskRemoveMulti
0400ecd0 g     F .text	000008ac .hidden __adddf3
040132a8 g     F .text	00000150 OS_EventTaskWaitMulti
0400a180 g     F .text	0000010c __b2d
0401e9c2 g     O .rwdata	00000002 OSQSize
0400e798 g     F .text	00000538 .hidden __umoddi3
040117d8 g     F .text	000000d4 lseek
040180ac g     F .text	0000020c OSSemPend
0401e94c g     O .rwdata	00000004 _global_impure_ptr
0400a5f4 g     F .text	00000564 _realloc_r
0401e9ac g     O .rwdata	00000002 OSLowestPrio
04029a8c g       *ABS*	00000000 __bss_end
0401b8d4 g     F .text	000000f0 alt_iic_isr_register
0401c254 g     F .text	00000024 OSTCBInitHook
0401e9f2 g     O .rwdata	00000002 OSTmrCfgTicksPerSec
0401bdf4 g     F .text	00000108 alt_tick
04016110 g     F .text	00000110 OSMboxPost
0400e220 g     F .text	00000578 .hidden __udivdi3
0400dc6c g     F .text	00000024 _fputwc_r
0401e994 g     O .rwdata	00000002 OSEventEn
0401cbe0 g     O .rodata	00000028 __mprec_bigtens
040097e8 g     F .text	00000104 __s2b
0401e9ee g     O .rwdata	00000002 OSTmrCfgNameSize
04001084 g     F .text	000000a8 .hidden __floatunsidf
04009ec0 g     F .text	00000060 __mcmp
04007bfc g     F .text	00000018 __fp_lock_all
0401b888 g     F .text	0000004c alt_ic_irq_enabled
0401574c g     F .text	000000e0 OS_FlagInit
0401bd58 g     F .text	0000009c alt_alarm_stop
0401e9d0 g     O .rwdata	00000002 OSTaskIdleStkSize
04020608 g     O .bss	00000004 alt_irq_active
04017ce4 g     F .text	000000b0 OSSemAccept
04016954 g     F .text	000000d8 OSMemPut
0401648c g     F .text	000001d4 OSMemCreate
04020640 g     O .bss	00000004 OSIdleCtrMax
040000fc g     F .exceptions	000000d4 alt_irq_handler
0401d704 g     O .rwdata	00000028 alt_dev_null
0401e9e4 g     O .rwdata	00000002 OSTicksPerSec
0401e920 g     O .rwdata	00000004 hex2
04000290 g     F .text	000000a8 divideNumberIntoArray
0401bf20 g       .text	00000000 OSIntCtxSw
0401b508 g     F .text	00000048 alt_dcache_flush_all
040098ec g     F .text	00000068 __hi0bits
040110d0 g     F .text	00000080 .hidden __fixdfsi
04020644 g     O .bss	00000004 OSTCBFreeList
0401ea08 g       *ABS*	00000000 __ram_rwdata_end
040182b8 g     F .text	0000016c OSSemPendAbort
0401e96c g     O .rwdata	00000008 alt_dev_list
04011d04 g     F .text	000000f8 write
0401e9e8 g     O .rwdata	00000002 OSVersionNbr
0401ce60 g       *ABS*	00000000 __ram_rodata_end
040113a0 g     F .text	000000b0 fstat
0400ffc8 g     F .text	000000f4 .hidden __ledf2
0401e990 g     O .rwdata	00000004 OSEndiannessTest
04009c38 g     F .text	00000140 __pow5mult
0400c358 g     F .text	0000145c ___vfiprintf_internal_r
040205f0 g     O .bss	00000004 __nlocale_changed
04000e98 g     F .text	00000058 .hidden __umodsi3
040205d8 g     O .bss	00000004 OSTmrCtr
0401e9a2 g     O .rwdata	00000002 OSFlagGrpSize
04029a8c g       *ABS*	00000000 end
0401e938 g     O .rwdata	00000004 leds
0401a5c8 g     F .text	00000148 altera_avalon_jtag_uart_init
04013cb4 g     F .text	000000cc OS_TaskStat
040001d0 g     F .exceptions	00000074 alt_instruction_exception_entry
0401e944 g     O .rwdata	00000004 switches
040205dc g     O .bss	00000004 taskStartTimestamp
0401e91c g     O .rwdata	00000004 hex1
0401c9ac g       *ABS*	00000000 __CTOR_LIST__
08000000 g       *ABS*	00000000 __alt_stack_pointer
0401b208 g     F .text	0000007c alt_avalon_timer_sc_init
040013e4 g     F .text	00000064 .hidden __clzsi2
0401aecc g     F .text	000002c4 altera_avalon_jtag_uart_write
04007bec g     F .text	00000004 __sfp_lock_acquire
04009148 g     F .text	000000e4 memchr
04013990 g     F .text	00000054 OS_MemClr
04003938 g     F .text	000021f8 ___vfprintf_internal_r
0401bff0 g     F .text	0000015c OSTaskStkInit
04000ae8 g     F .text	00000098 task1
04001604 g     F .text	00000058 _sprintf_r
04007d50 g     F .text	00000310 _free_r
0400872c g     F .text	00000010 __locale_mb_cur_max
04013000 g     F .text	00000198 OS_EventTaskRdy
0401c7f8 g     F .text	00000180 __call_exitprocs
04020648 g     O .bss	00000001 OSCPUUsage
040205ec g     O .bss	00000004 __mlocale_changed
0401e958 g     O .rwdata	00000004 __malloc_sbrk_base
04000244 g     F .text	0000004c _start
04000b80 g     F .text	00000034 task2
04020678 g     O .bss	00000004 _alt_tick_rate
04017204 g     F .text	0000028c OSQPend
04019eb0 g     F .text	00000104 OSTimeDly
040015a0 g     F .text	00000064 rand
04009d78 g     F .text	00000148 __lshift
0402067c g     O .bss	00000004 _alt_nticks
04000944 g     F .text	000001a4 play
040119a4 g     F .text	000000fc read
0401a404 g     F .text	00000060 alt_sys_init
04000f60 g     F .text	00000124 .hidden __floatsisf
0400ae38 g     F .text	000001d0 __ssprint_r
0401c6e0 g     F .text	00000118 __register_exitproc
04020649 g     O .bss	00000001 OSTaskCtr
04019fb4 g     F .text	00000154 OSTimeDlyHMSM
04009a40 g     F .text	000001f8 __multiply
0401aab8 g     F .text	00000068 altera_avalon_jtag_uart_close
0401e92c g     O .rwdata	00000004 hex5
0401ce60 g       *ABS*	00000000 __ram_rwdata_start
0401c9ac g       *ABS*	00000000 __ram_rodata_start
04020684 g     O .bss	00000028 __malloc_current_mallinfo
0401e996 g     O .rwdata	00000002 OSEventMax
0400a28c g     F .text	0000014c __d2b
04018424 g     F .text	00000110 OSSemPost
04012ba4 g     F .text	000000dc OSSchedUnlock
0401a464 g     F .text	00000060 altera_avalon_jtag_uart_read_fd
0401c410 g     F .text	000000dc alt_get_fd
0402064c g     O .bss	00000004 OSMemFreeList
04012cf0 g     F .text	000000b0 OSStatInit
0401b3b0 g     F .text	00000158 alt_busy_sleep
04015528 g     F .text	000000c4 OSFlagQuery
0401e9cc g     O .rwdata	00000002 OSTaskCreateExtEn
0400d8ec g     F .text	00000054 _close_r
0401e93c g     O .rwdata	00000004 onchip_memory2_0
0401c664 g     F .text	0000007c memcmp
04012fe0 g     F .text	00000020 OS_Dummy
0401a524 g     F .text	00000050 altera_avalon_jtag_uart_close_fd
04029a8c g       *ABS*	00000000 __alt_stack_base
0401a574 g     F .text	00000054 altera_avalon_jtag_uart_ioctl_fd
04005c08 g     F .text	00000154 __swsetup_r
04027f08 g     O .bss	000001e0 OSQTbl
0400f57c g     F .text	000008e8 .hidden __divdf3
04007aac g     F .text	00000118 __sfp
0400a4f0 g     F .text	00000078 __copybits
0401d2fc g     O .rwdata	00000408 __malloc_av_
04007bf8 g     F .text	00000004 __sinit_lock_release
04020650 g     O .bss	00000004 OSTCBHighRdy
040100bc g     F .text	00000718 .hidden __muldf3
0400ac20 g     F .text	00000054 __sread
04020654 g     O .bss	00000004 OSQFreeList
0401c308 g     F .text	00000108 alt_find_file
0401b58c g     F .text	000000a4 alt_dev_llist_insert
04011f20 g     F .text	00000120 __malloc_lock
04011b04 g     F .text	000000b0 sbrk
04001760 g     F .text	000021d8 ___svfprintf_internal_r
0401222c g     F .text	00000140 OSEventNameSet
04007800 g     F .text	0000005c _fflush_r
0400d940 g     F .text	000000c4 _calloc_r
04020658 g     O .bss	00000001 OSRdyGrp
040205b0 g       *ABS*	00000000 __bss_start
040094d0 g     F .text	00000128 memset
04000c10 g     F .text	0000012c main
04020614 g     O .bss	00000004 alt_envp
040205f4 g     O .bss	00000004 __malloc_max_total_mem
0401a4c4 g     F .text	00000060 altera_avalon_jtag_uart_write_fd
0400dfc0 g     F .text	00000018 __swbuf
04001588 g     F .text	00000018 srand
0401cd2c g     O .rodata	00000100 OSUnMapTbl
0401e9c6 g     O .rwdata	00000002 OSSemEn
04015194 g     F .text	00000394 OSFlagPost
0400ad54 g     F .text	00000008 __sclose
08000000 g       *ABS*	00000000 __alt_heap_limit
0400daf4 g     F .text	00000014 fclose
04013198 g     F .text	00000110 OS_EventTaskWait
04022768 g     O .bss	00002000 task2_stk
0400123c g     F .text	000001a8 .hidden __truncdfsf2
04013d80 g     F .text	000000cc OS_TaskStatStkChk
04019308 g     F .text	00000150 OSTaskDelReq
04005f5c g     F .text	00001688 _dtoa_r
0400893c g     F .text	0000080c _malloc_r
0400e134 g     F .text	00000030 __ascii_wctomb
040205c0 g     O .bss	00000004 time
0401e978 g     O .rwdata	00000004 alt_errno
04012c80 g     F .text	00000070 OSStart
04024768 g     O .bss	00002000 task3_stk
04011ec0 g     F .text	00000060 __env_unlock
0401e934 g     O .rwdata	00000004 key
0400851c g     F .text	000000c4 _fwalk
040197a4 g     F .text	000001d4 OSTaskResume
04016a2c g     F .text	000000e8 OSMemQuery
0401e9d8 g     O .rwdata	00000002 OSTaskStatEn
0401e9b2 g     O .rwdata	00000002 OSMemMax
04017764 g     F .text	00000170 OSQPostFront
04000d3c g     F .text	00000084 .hidden __divsi3
04020659 g     O .bss	00000003 OSRdyTbl
0401e98c g     O .rwdata	00000002 OSDebugEn
04007c2c g     F .text	00000124 _malloc_trim_r
0401c9ac g       *ABS*	00000000 __CTOR_END__
0401e9a4 g     O .rwdata	00000002 OSFlagNodeSize
0401e9ec g     O .rwdata	00000002 OSTmrCfgMax
0400ad5c g     F .text	000000dc strcmp
04016d20 g     F .text	000001ac OSQCreate
04019458 g     F .text	00000198 OSTaskNameGet
0401c9ac g       *ABS*	00000000 __flash_rodata_start
040178d4 g     F .text	0000020c OSQPostOpt
04012da0 g     F .text	00000220 OSTimeTick
0401e9d4 g     O .rwdata	00000002 OSTaskMax
0401c9ac g       *ABS*	00000000 __DTOR_LIST__
04017d94 g     F .text	000000d8 OSSemCreate
0401e9f8 g     O .rwdata	00000002 OSTmrWheelSize
040205e0 g     O .bss	00000004 mailBox3_1
0400fe64 g     F .text	00000088 .hidden __nedf2
0401e9ce g     O .rwdata	00000002 OSTaskDelEn
0401e924 g     O .rwdata	00000004 hex3
04018534 g     F .text	00000110 OSSemQuery
04016ecc g     F .text	00000280 OSQDel
04017490 g     F .text	0000016c OSQPendAbort
0401a3cc g     F .text	00000038 alt_irq_init
04011aa0 g     F .text	00000064 alt_release_fd
0400165c g     F .text	0000006c sprintf
0401ca04 g     O .rodata	00000100 .hidden __clz_tab
040205e8 g     O .bss	00000004 _PathLocale
0401c618 g     F .text	00000014 atexit
0400d88c g     F .text	00000060 _write_r
040205e4 g     O .bss	00000004 msgQueue
04012b18 g     F .text	0000008c OSSchedLock
0400875c g     F .text	00000018 setlocale
04000700 g     F .text	00000034 oddLedsOn
040145b8 g     F .text	00000108 OSFlagCreate
0401e950 g     O .rwdata	00000004 _impure_ptr
0402060c g     O .bss	00000004 alt_argc
040075e4 g     F .text	0000021c __sflush_r
0401b690 g     F .text	00000060 _do_dtors
04008748 g     F .text	00000008 __locale_cjk_lang
040205b4 g     O .bss	00000004 stopGame
0401e99e g     O .rwdata	00000002 OSEventMultiEn
040146c0 g     F .text	00000248 OSFlagDel
0402065c g     O .bss	00000004 OSEventFreeList
04015fa4 g     F .text	0000016c OSMboxPendAbort
04000020 g       .exceptions	00000000 alt_irq_entry
040205c4 g     O .bss	00000004 triggerAverage1_3
0400a11c g     F .text	00000064 __ulp
04014b7c g     F .text	000005b8 OSFlagPend
0401e9ea g     O .rwdata	00000002 OSTmrEn
04007c14 g     F .text	00000018 __fp_unlock_all
0401e964 g     O .rwdata	00000008 alt_fs_list
04013b90 g     F .text	00000074 OS_StrCopy
0401e9b4 g     O .rwdata	00000002 OSMemNameSize
0401c214 g     F .text	00000020 OSInitHookEnd
04000020 g       *ABS*	00000000 __ram_exceptions_start
0401e9e0 g     O .rwdata	00000002 OSTCBPrioTblMax
04008774 g     F .text	0000000c localeconv
0401e9dc g     O .rwdata	00000002 OSTaskStatStkChkEn
04015a5c g     F .text	000000d4 OSMboxCreate
0401b724 g     F .text	00000050 alt_ic_isr_register
0401e9b0 g     O .rwdata	00000002 OSMemEn
0401e9ba g     O .rwdata	00000002 OSMutexEn
04000734 g     F .text	00000034 evenLedsOn
0401ea08 g       *ABS*	00000000 _edata
04000768 g     F .text	00000078 runC2
04029a8c g       *ABS*	00000000 _end
04020660 g     O .bss	00000001 OSIntNesting
0400db08 g     F .text	00000164 __fputwc
04000244 g       *ABS*	00000000 __ram_exceptions_end
0401ab20 g     F .text	000000f0 altera_avalon_jtag_uart_ioctl
0401a108 g     F .text	000001d4 OSTimeDlyResume
04014a30 g     F .text	0000014c OSFlagNameSet
04015d70 g     F .text	00000234 OSMboxPend
04019978 g     F .text	000001c0 OSTaskStkChk
0401b7fc g     F .text	0000008c alt_ic_irq_disable
0401e9b6 g     O .rwdata	00000002 OSMemSize
0400ac7c g     F .text	0000007c __swrite
0401e95c g     O .rwdata	00000004 __malloc_trim_threshold
0400873c g     F .text	0000000c __locale_msgcharset
04020664 g     O .bss	00000004 OSTCBCur
0401c62c g     F .text	00000038 exit
040205b8 g     O .bss	00000004 nbTry
0401e9b8 g     O .rwdata	00000002 OSMemTblSize
040085e0 g     F .text	000000c4 _fwalk_reent
040006cc g     F .text	00000034 ledOn
04009f20 g     F .text	000001fc __mdiff
04000dc0 g     F .text	00000074 .hidden __modsi3
040159c4 g     F .text	00000098 OSMboxAccept
08000000 g       *ABS*	00000000 __alt_data_end
04000020 g     F .exceptions	00000000 alt_exception
04007bf0 g     F .text	00000004 __sfp_lock_release
0401297c g     F .text	00000058 OSInit
04000000 g       *ABS*	00000000 __alt_mem_sdram
04019d1c g     F .text	00000124 OSTaskQuery
04017c3c g     F .text	000000a8 OS_QInit
04013c04 g     F .text	00000054 OS_StrLen
04016840 g     F .text	00000114 OSMemNameSet
0401e9d2 g     O .rwdata	00000002 OSTaskProfileEn
04020668 g     O .bss	00000004 OSTime
040280e8 g     O .bss	00000800 OSTaskIdleStk
0401c978 g     F .text	00000034 _exit
04016220 g     F .text	0000015c OSMboxPostOpt
0401b284 g     F .text	0000012c alt_alarm_start
04014908 g     F .text	00000128 OSFlagNameGet
0401a2dc g     F .text	0000005c OSTimeGet
0400e1c0 g     F .text	00000060 .hidden __muldi3
04008780 g     F .text	000001bc __smakebuf_r
040016c8 g     F .text	00000098 strlen
0401c194 g     F .text	00000020 OSTaskSwHook
0401bc04 g     F .text	00000154 open
0401e928 g     O .rwdata	00000004 hex4
040288e8 g     O .bss	00000b40 OSEventTbl
0400feec g     F .text	000000dc .hidden __gedf2
04029428 g     O .bss	00000510 OSTCBTbl
04018644 g     F .text	00000100 OSSemSet
040205b0 g     O .bss	00000004 wantToPlayAGame
0401e960 g     O .rwdata	00000004 __wctomb
0400c340 g     F .text	00000018 __sprint_r
0401b6f0 g     F .text	00000034 alt_icache_flush_all
0401e97c g     O .rwdata	00000004 alt_priority_mask
04017e6c g     F .text	00000240 OSSemDel
0402066c g     O .bss	00000004 OSFlagFreeList
04000bb4 g     F .text	0000005c task3
0401b774 g     F .text	00000088 alt_ic_irq_enable
0401e998 g     O .rwdata	00000002 OSEventNameSize
04015b30 g     F .text	00000240 OSMboxDel
04005b30 g     F .text	0000001c __vfprintf_internal
04020670 g     O .bss	00000001 OSStatRdy
04029938 g     O .bss	00000054 OSTCBPrioTbl
0400e164 g     F .text	0000005c _wctomb_r
04011dfc g     F .text	000000c4 __env_lock
0401e9de g     O .rwdata	00000002 OSTaskSwHookEn
040107d4 g     F .text	000008fc .hidden __subdf3
04009954 g     F .text	000000b0 __lo0bits
0401ea00 g     O .rwdata	00000008 alt_alarm_list
0401e9a6 g     O .rwdata	00000002 OSFlagWidth
0401b630 g     F .text	00000060 _do_ctors
0400e074 g     F .text	000000c0 wcrtomb
04011268 g     F .text	000000d0 close
0402061c g     O .bss	00000004 alt_envsem
04020674 g     O .bss	00000004 OSIdleCtrRun
04012fc0 g     F .text	00000020 OSVersion
0401e9f0 g     O .rwdata	00000002 OSTmrCfgWheelSize
04011718 g     F .text	00000084 alt_load
04019e40 g     F .text	00000070 OS_TaskStkClr
0401e9ca g     O .rwdata	00000002 OSTaskCreateEn
040135b0 g     F .text	00000068 OS_EventWaitListInit
0400dc90 g     F .text	00000080 fputwc
0401c234 g     F .text	00000020 OSTaskIdleHook
040005dc g     F .text	00000030 display0
04007bf4 g     F .text	00000004 __sinit_lock_acquire
040096c8 g     F .text	00000120 __multadd
04019b38 g     F .text	000001e4 OSTaskSuspend
040096a0 g     F .text	00000028 _Bfree
04013c58 g     F .text	0000005c OS_TaskIdle
0401e9f6 g     O .rwdata	00000002 OSTmrTblSize
04017ae0 g     F .text	0000015c OSQQuery



Disassembly of section .entry:

04000000 <__reset>:
#if NIOS2_ICACHE_SIZE > 0 && defined(ALT_ALLOW_CODE_AT_RESET) && (!defined(ALT_SIM_OPTIMIZE) || defined(NIOS2_ECC_PRESENT))
    /* Assume the instruction cache size is always a power of two. */
#if NIOS2_ICACHE_SIZE > 0x8000
    movhi r2, %hi(NIOS2_ICACHE_SIZE)
#else
    movui r2, NIOS2_ICACHE_SIZE
 4000000:	00840014 	movui	r2,4096
#endif

0:
    initi r2
 4000004:	1001483a 	initi	r2
    addi r2, r2, -NIOS2_ICACHE_LINE_SIZE
 4000008:	10bff804 	addi	r2,r2,-32
    bgt r2, zero, 0b
 400000c:	00bffd16 	blt	zero,r2,4000004 <__alt_mem_onchip_memory2_0+0xfbffe004>
 * Jump to the _start entry point in the .text section if reset code
 * is allowed or if optimizing for RTL simulation.
 */
#if defined(ALT_ALLOW_CODE_AT_RESET) || defined(ALT_SIM_OPTIMIZE)
    /* Jump to the _start entry point in the .text section. */
    movhi r1, %hi(_start)
 4000010:	00410034 	movhi	at,1024
    ori r1, r1, %lo(_start)
 4000014:	08409114 	ori	at,at,580
    jmp r1
 4000018:	0800683a 	jmp	at
 400001c:	00000000 	call	0 <OSTCBStkPtr_OFFSET>

Disassembly of section .exceptions:

04000020 <alt_exception>:

#else /* ALT_EXCEPTION_STACK disabled */
        /* 
         * Reserve space on normal stack for registers about to be pushed.
         */
        addi  sp, sp, -76
 4000020:	deffed04 	addi	sp,sp,-76
         * documentation for details).
         *
         * Leave a gap in the stack frame at 4(sp) for the muldiv handler to
         * store zero into.
         */
        stw   ra,  0(sp)
 4000024:	dfc00015 	stw	ra,0(sp)
        stw   r1,   8(sp)
 4000028:	d8400215 	stw	at,8(sp)
        stw   r2,  12(sp)
 400002c:	d8800315 	stw	r2,12(sp)
        stw   r3,  16(sp)
 4000030:	d8c00415 	stw	r3,16(sp)
        stw   r4,  20(sp)
 4000034:	d9000515 	stw	r4,20(sp)
        stw   r5,  24(sp)
 4000038:	d9400615 	stw	r5,24(sp)
        stw   r6,  28(sp)
 400003c:	d9800715 	stw	r6,28(sp)
        stw   r7,  32(sp)
 4000040:	d9c00815 	stw	r7,32(sp)
        rdctl r5, estatus   /* Read early to avoid usage stall */
 4000044:	000b307a 	rdctl	r5,estatus
        stw   r8,  36(sp)
 4000048:	da000915 	stw	r8,36(sp)
        stw   r9,  40(sp)
 400004c:	da400a15 	stw	r9,40(sp)
        stw   r10, 44(sp)
 4000050:	da800b15 	stw	r10,44(sp)
        stw   r11, 48(sp)
 4000054:	dac00c15 	stw	r11,48(sp)
        stw   r12, 52(sp)
 4000058:	db000d15 	stw	r12,52(sp)
        stw   r13, 56(sp)
 400005c:	db400e15 	stw	r13,56(sp)
        stw   r14, 60(sp)
 4000060:	db800f15 	stw	r14,60(sp)
        stw   r15, 64(sp)
 4000064:	dbc01015 	stw	r15,64(sp)
        /*
         * ea-4 contains the address of the instruction being executed
         * when the exception occured. For interrupt exceptions, we will
         * will be re-issue the isntruction. Store it in 72(sp)
         */
        stw   r5,  68(sp)  /* estatus */
 4000068:	d9401115 	stw	r5,68(sp)
        addi  r15, ea, -4  /* instruction that caused exception */
 400006c:	ebffff04 	addi	r15,ea,-4
        stw   r15,  72(sp)
 4000070:	dbc01215 	stw	r15,72(sp)
#else
        /*
         * Test to see if the exception was a software exception or caused 
         * by an external interrupt, and vector accordingly.
         */
        rdctl r4, ipending
 4000074:	0009313a 	rdctl	r4,ipending
        andi  r2, r5, 1
 4000078:	2880004c 	andi	r2,r5,1
        beq   r2, zero, .Lnot_irq
 400007c:	10000326 	beq	r2,zero,400008c <alt_exception+0x6c>
        beq   r4, zero, .Lnot_irq
 4000080:	20000226 	beq	r4,zero,400008c <alt_exception+0x6c>
        /*
         * Now that all necessary registers have been preserved, call 
         * alt_irq_handler() to process the interrupts.
         */

        call alt_irq_handler
 4000084:	40000fc0 	call	40000fc <alt_irq_handler>

        .section .exceptions.irqreturn, "xa"

        br    .Lexception_exit
 4000088:	00000706 	br	40000a8 <alt_exception+0x88>
         * upon completion, so we write ea (address of instruction *after*
         * the one where the exception occured) into 72(sp). The actual
         * instruction that caused the exception is written in r2, which these
         * handlers will utilize.
         */
        stw ea, 72(sp) /* EA is PC+4 so will skip over instruction causing exception */
 400008c:	df401215 	stw	ea,72(sp)
.Lunknown_16bit:
        addi.n r4, r4, 2 /* Need PC+2 to skip over instruction causing exception */
        stw r4, 72(sp)

#else /* CDX is not Enabled and all instructions are 32bits */
        ldw r2, -4(ea) /* Instruction value that caused exception */
 4000090:	e8bfff17 	ldw	r2,-4(ea)
         * debugger is present) or go into an infinite loop since the
         * handling behavior is undefined; in that case we will not return here.
         */

        /* Load exception-causing address as first argument (r4) */
        addi   r4, ea, -4
 4000094:	e93fff04 	addi	r4,ea,-4

        /* Call the instruction-exception entry */
        call   alt_instruction_exception_entry
 4000098:	40001d00 	call	40001d0 <alt_instruction_exception_entry>
         * instruction
         *
         * Return code was 0: Skip. The instruction after the exception is
         * already stored in 72(sp).
         */
        bne   r2, r0, .Lexception_exit
 400009c:	1000021e 	bne	r2,zero,40000a8 <alt_exception+0x88>

        /*
         * Otherwise, modify 72(sp) to re-issue the instruction that caused the
         * exception.
         */
        addi  r15, ea, -4  /* instruction that caused exception */
 40000a0:	ebffff04 	addi	r15,ea,-4
        stw   r15,  72(sp)
 40000a4:	dbc01215 	stw	r15,72(sp)
        /* 
         * Restore the saved registers, so that all general purpose registers 
         * have been restored to their state at the time the interrupt occured.
         */

        ldw   r5,  68(sp)
 40000a8:	d9401117 	ldw	r5,68(sp)
        ldw   ea,  72(sp)  /* This becomes the PC once eret is executed */
 40000ac:	df401217 	ldw	ea,72(sp)
        ldw   ra,   0(sp)
 40000b0:	dfc00017 	ldw	ra,0(sp)

        wrctl estatus, r5
 40000b4:	2801707a 	wrctl	estatus,r5

        ldw   r1,   8(sp)
 40000b8:	d8400217 	ldw	at,8(sp)
        ldw   r2,  12(sp)
 40000bc:	d8800317 	ldw	r2,12(sp)
        ldw   r3,  16(sp)
 40000c0:	d8c00417 	ldw	r3,16(sp)
        ldw   r4,  20(sp)
 40000c4:	d9000517 	ldw	r4,20(sp)
        ldw   r5,  24(sp)
 40000c8:	d9400617 	ldw	r5,24(sp)
        ldw   r6,  28(sp)
 40000cc:	d9800717 	ldw	r6,28(sp)
        ldw   r7,  32(sp)
 40000d0:	d9c00817 	ldw	r7,32(sp)

#if defined(ALT_EXCEPTION_STACK) && defined(ALT_STACK_CHECK)
        ldw   et, %gprel(alt_exception_old_stack_limit)(gp)
#endif

        ldw   r8,  36(sp)
 40000d4:	da000917 	ldw	r8,36(sp)
        ldw   r9,  40(sp)
 40000d8:	da400a17 	ldw	r9,40(sp)
        ldw   r10, 44(sp)
 40000dc:	da800b17 	ldw	r10,44(sp)
        ldw   r11, 48(sp)
 40000e0:	dac00c17 	ldw	r11,48(sp)
        ldw   r12, 52(sp)
 40000e4:	db000d17 	ldw	r12,52(sp)
        ldw   r13, 56(sp)
 40000e8:	db400e17 	ldw	r13,56(sp)
        ldw   r14, 60(sp)
 40000ec:	db800f17 	ldw	r14,60(sp)
        ldw   r15, 64(sp)
 40000f0:	dbc01017 	ldw	r15,64(sp)
        stw   et, %gprel(alt_stack_limit_value)(gp)
        stw   zero, %gprel(alt_exception_old_stack_limit)(gp)
#endif /* ALT_STACK_CHECK */
        ldw   sp,  76(sp)
#else /* ALT_EXCEPTION_STACK disabled */
        addi  sp, sp, 76
 40000f4:	dec01304 	addi	sp,sp,76

        /*
         * Return to the interrupted instruction.
         */

        eret
 40000f8:	ef80083a 	eret

040000fc <alt_irq_handler>:
 * instruction is present if the macro ALT_CI_INTERRUPT_VECTOR defined.
 */

void alt_irq_handler (void) __attribute__ ((section (".exceptions")));
void alt_irq_handler (void)
{
 40000fc:	defff904 	addi	sp,sp,-28
 4000100:	dfc00615 	stw	ra,24(sp)
 4000104:	df000515 	stw	fp,20(sp)
 4000108:	df000504 	addi	fp,sp,20
  
  /*
   * Notify the operating system that we are at interrupt level.
   */ 
  
  ALT_OS_INT_ENTER();
 400010c:	40129d40 	call	40129d4 <OSIntEnter>
#ifndef NIOS2_EIC_PRESENT
static ALT_INLINE alt_u32 ALT_ALWAYS_INLINE alt_irq_pending (void)
{
  alt_u32 active;

  NIOS2_READ_IPENDING (active);
 4000110:	0005313a 	rdctl	r2,ipending
 4000114:	e0bffe15 	stw	r2,-8(fp)

  return active;
 4000118:	e0bffe17 	ldw	r2,-8(fp)
   * Consider the case where the high priority interupt is asserted during
   * the interrupt entry sequence for a lower priority interrupt to see why
   * this is the case.
   */

  active = alt_irq_pending ();
 400011c:	e0bffb15 	stw	r2,-20(fp)

  do
  {
    i = 0;
 4000120:	e03ffd15 	stw	zero,-12(fp)
    mask = 1;
 4000124:	00800044 	movi	r2,1
 4000128:	e0bffc15 	stw	r2,-16(fp)
     * called to clear the interrupt condition.
     */

    do
    {
      if (active & mask)
 400012c:	e0fffb17 	ldw	r3,-20(fp)
 4000130:	e0bffc17 	ldw	r2,-16(fp)
 4000134:	1884703a 	and	r2,r3,r2
 4000138:	10001426 	beq	r2,zero,400018c <alt_irq_handler+0x90>
      { 
#ifdef ALT_ENHANCED_INTERRUPT_API_PRESENT
        alt_irq[i].handler(alt_irq[i].context); 
 400013c:	008100f4 	movhi	r2,1027
 4000140:	10a66304 	addi	r2,r2,-26228
 4000144:	e0fffd17 	ldw	r3,-12(fp)
 4000148:	180690fa 	slli	r3,r3,3
 400014c:	10c5883a 	add	r2,r2,r3
 4000150:	10c00017 	ldw	r3,0(r2)
 4000154:	008100f4 	movhi	r2,1027
 4000158:	10a66304 	addi	r2,r2,-26228
 400015c:	e13ffd17 	ldw	r4,-12(fp)
 4000160:	200890fa 	slli	r4,r4,3
 4000164:	1105883a 	add	r2,r2,r4
 4000168:	10800104 	addi	r2,r2,4
 400016c:	10800017 	ldw	r2,0(r2)
 4000170:	1009883a 	mov	r4,r2
 4000174:	183ee83a 	callr	r3
#else
        alt_irq[i].handler(alt_irq[i].context, i); 
#endif
        break;
 4000178:	0001883a 	nop
#ifndef NIOS2_EIC_PRESENT
static ALT_INLINE alt_u32 ALT_ALWAYS_INLINE alt_irq_pending (void)
{
  alt_u32 active;

  NIOS2_READ_IPENDING (active);
 400017c:	0005313a 	rdctl	r2,ipending
 4000180:	e0bfff15 	stw	r2,-4(fp)

  return active;
 4000184:	e0bfff17 	ldw	r2,-4(fp)
 4000188:	00000706 	br	40001a8 <alt_irq_handler+0xac>
      }
      mask <<= 1;
 400018c:	e0bffc17 	ldw	r2,-16(fp)
 4000190:	1085883a 	add	r2,r2,r2
 4000194:	e0bffc15 	stw	r2,-16(fp)
      i++;
 4000198:	e0bffd17 	ldw	r2,-12(fp)
 400019c:	10800044 	addi	r2,r2,1
 40001a0:	e0bffd15 	stw	r2,-12(fp)

    } while (1);
 40001a4:	003fe106 	br	400012c <__alt_mem_onchip_memory2_0+0xfbffe12c>

    active = alt_irq_pending ();
 40001a8:	e0bffb15 	stw	r2,-20(fp)
    
  } while (active);
 40001ac:	e0bffb17 	ldw	r2,-20(fp)
 40001b0:	103fdb1e 	bne	r2,zero,4000120 <__alt_mem_onchip_memory2_0+0xfbffe120>

  /*
   * Notify the operating system that interrupt processing is complete.
   */ 

  ALT_OS_INT_EXIT();
 40001b4:	4012a200 	call	4012a20 <OSIntExit>
}
 40001b8:	0001883a 	nop
 40001bc:	e037883a 	mov	sp,fp
 40001c0:	dfc00117 	ldw	ra,4(sp)
 40001c4:	df000017 	ldw	fp,0(sp)
 40001c8:	dec00204 	addi	sp,sp,8
 40001cc:	f800283a 	ret

040001d0 <alt_instruction_exception_entry>:
 * that handler if it has been registered. Absent a handler, it will
 * break break or hang as discussed below.
 */
int 
alt_instruction_exception_entry (alt_u32 exception_pc)
{
 40001d0:	defffb04 	addi	sp,sp,-20
 40001d4:	dfc00415 	stw	ra,16(sp)
 40001d8:	df000315 	stw	fp,12(sp)
 40001dc:	df000304 	addi	fp,sp,12
 40001e0:	e13fff15 	stw	r4,-4(fp)
 * NIOS2_EXCEPTION_CAUSE_NOT_PRESENT. Your handling routine should
 * check the validity of the cause argument before proceeding.
 */
#ifdef NIOS2_HAS_EXTRA_EXCEPTION_INFO
  /* Get exception cause & "badaddr" */
  NIOS2_READ_EXCEPTION(cause);
 40001e4:	000531fa 	rdctl	r2,exception
 40001e8:	e0bffd15 	stw	r2,-12(fp)
  cause = ( (cause & NIOS2_EXCEPTION_REG_CAUSE_MASK) >>
 40001ec:	e0bffd17 	ldw	r2,-12(fp)
 40001f0:	10801f0c 	andi	r2,r2,124
 40001f4:	1004d0ba 	srli	r2,r2,2
 40001f8:	e0bffd15 	stw	r2,-12(fp)
              NIOS2_EXCEPTION_REG_CAUSE_OFST );

  NIOS2_READ_BADADDR(badaddr);
 40001fc:	0005333a 	rdctl	r2,badaddr
 4000200:	e0bffe15 	stw	r2,-8(fp)
#else
  cause = NIOS2_EXCEPTION_CAUSE_NOT_PRESENT;
  badaddr = 0;
#endif /* NIOS2_HAS_EXTRA_EXCEPTION_INFO */

  if(alt_instruction_exception_handler) {
 4000204:	d0a75a17 	ldw	r2,-25240(gp)
 4000208:	10000726 	beq	r2,zero,4000228 <alt_instruction_exception_entry+0x58>
     * Call handler. Its return value indicates whether the exception-causing
     * instruction should be re-issued. The code that called us,
     * alt_eceptions_entry.S, will look at this value and adjust the ea
     * register as necessary
     */
    return alt_instruction_exception_handler(cause, exception_pc, badaddr);
 400020c:	d0a75a17 	ldw	r2,-25240(gp)
 4000210:	e0fffd17 	ldw	r3,-12(fp)
 4000214:	e1bffe17 	ldw	r6,-8(fp)
 4000218:	e17fff17 	ldw	r5,-4(fp)
 400021c:	1809883a 	mov	r4,r3
 4000220:	103ee83a 	callr	r2
 4000224:	00000206 	br	4000230 <alt_instruction_exception_entry+0x60>
   *    (a peripheral which negates its interrupt output before its
   *    interrupt handler has been executed will cause spurious interrupts)
   */
  else {
#ifdef NIOS2_HAS_DEBUG_STUB
    NIOS2_BREAK();
 4000228:	003da03a 	break	0
      ;
#endif /* NIOS2_HAS_DEBUG_STUB */
  }

  /* We should not get here. Remove compiler warning. */
  return NIOS2_EXCEPTION_RETURN_REISSUE_INST;
 400022c:	0005883a 	mov	r2,zero
}
 4000230:	e037883a 	mov	sp,fp
 4000234:	dfc00117 	ldw	ra,4(sp)
 4000238:	df000017 	ldw	fp,0(sp)
 400023c:	dec00204 	addi	sp,sp,8
 4000240:	f800283a 	ret

Disassembly of section .text:

04000244 <_start>:

    /* Assume the data cache size is always a power of two. */
#if NIOS2_DCACHE_SIZE > 0x8000
    movhi r2, %hi(NIOS2_DCACHE_SIZE)
#else
    movui r2, NIOS2_DCACHE_SIZE
 4000244:	00820014 	movui	r2,2048
#endif

0:
    initd 0(r2)
 4000248:	10000033 	initd	0(r2)
#ifdef NIOS2_ECC_PRESENT
    addi r2, r2, -4
#else
    addi r2, r2, -NIOS2_DCACHE_LINE_SIZE
 400024c:	10bff804 	addi	r2,r2,-32
#endif
    bgt r2, zero, 0b
 4000250:	00bffd16 	blt	zero,r2,4000248 <__alt_mem_onchip_memory2_0+0xfbffe248>

    /*
     * Now that the caches are initialized, set up the stack pointer and global pointer.
     * The values provided by the linker are assumed to be correctly aligned.
     */
    movhi sp, %hi(__alt_stack_pointer)
 4000254:	06c20034 	movhi	sp,2048
    ori sp, sp, %lo(__alt_stack_pointer)
 4000258:	dec00014 	ori	sp,sp,0
    movhi gp, %hi(_gp)
 400025c:	068100b4 	movhi	gp,1026
    ori gp, gp, %lo(_gp)
 4000260:	d69a4614 	ori	gp,gp,26904
 */
#ifndef ALT_SIM_OPTIMIZE
    /* Log that the BSS is about to be cleared. */
    ALT_LOG_PUTS(alt_log_msg_bss)

    movhi r2, %hi(__bss_start)
 4000264:	008100b4 	movhi	r2,1026
    ori r2, r2, %lo(__bss_start)
 4000268:	10816c14 	ori	r2,r2,1456

    movhi r3, %hi(__bss_end)
 400026c:	00c100b4 	movhi	r3,1026
    ori r3, r3, %lo(__bss_end)
 4000270:	18e6a314 	ori	r3,r3,39564

    beq r2, r3, 1f
 4000274:	10c00326 	beq	r2,r3,4000284 <_start+0x40>

0:
    stw zero, (r2)
 4000278:	10000015 	stw	zero,0(r2)
    addi r2, r2, 4
 400027c:	10800104 	addi	r2,r2,4
    bltu r2, r3, 0b
 4000280:	10fffd36 	bltu	r2,r3,4000278 <__alt_mem_onchip_memory2_0+0xfbffe278>
     * section aren't defined until alt_load() has been called).
     */
    mov   et, zero
#endif

    call alt_load
 4000284:	40117180 	call	4011718 <alt_load>

    /* Log that alt_main is about to be called. */
    ALT_LOG_PUTS(alt_log_msg_alt_main)

    /* Call the C entry point. It should never return. */
    call alt_main
 4000288:	40118ac0 	call	40118ac <alt_main>

0400028c <alt_after_alt_main>:

    /* Wait in infinite loop in case alt_main does return. */
alt_after_alt_main:
    br alt_after_alt_main
 400028c:	003fff06 	br	400028c <__alt_mem_onchip_memory2_0+0xfbffe28c>

04000290 <divideNumberIntoArray>:

volatile bool triggerAverage1_3=false;

// util methods 
void divideNumberIntoArray(int number, int *array)
{
 4000290:	defff904 	addi	sp,sp,-28
 4000294:	dfc00615 	stw	ra,24(sp)
 4000298:	df000515 	stw	fp,20(sp)
 400029c:	dc000415 	stw	r16,16(sp)
 40002a0:	df000504 	addi	fp,sp,20
 40002a4:	e13ffd15 	stw	r4,-12(fp)
 40002a8:	e17ffe15 	stw	r5,-8(fp)
	int i = 0;
 40002ac:	e03ffb15 	stw	zero,-20(fp)
	int arrayLength = 6;
 40002b0:	00800184 	movi	r2,6
 40002b4:	e0bffc15 	stw	r2,-16(fp)
	while (number > 0)
 40002b8:	00001606 	br	4000314 <divideNumberIntoArray+0x84>
	{
		array[arrayLength - 1 - i] = number % 10;
 40002bc:	e0bffc17 	ldw	r2,-16(fp)
 40002c0:	10ffffc4 	addi	r3,r2,-1
 40002c4:	e0bffb17 	ldw	r2,-20(fp)
 40002c8:	1885c83a 	sub	r2,r3,r2
 40002cc:	1085883a 	add	r2,r2,r2
 40002d0:	1085883a 	add	r2,r2,r2
 40002d4:	1007883a 	mov	r3,r2
 40002d8:	e0bffe17 	ldw	r2,-8(fp)
 40002dc:	10e1883a 	add	r16,r2,r3
 40002e0:	e0bffd17 	ldw	r2,-12(fp)
 40002e4:	01400284 	movi	r5,10
 40002e8:	1009883a 	mov	r4,r2
 40002ec:	4000dc00 	call	4000dc0 <__modsi3>
 40002f0:	80800015 	stw	r2,0(r16)
		number = number / 10;
 40002f4:	e0bffd17 	ldw	r2,-12(fp)
 40002f8:	01400284 	movi	r5,10
 40002fc:	1009883a 	mov	r4,r2
 4000300:	4000d3c0 	call	4000d3c <__divsi3>
 4000304:	e0bffd15 	stw	r2,-12(fp)
		i++;
 4000308:	e0bffb17 	ldw	r2,-20(fp)
 400030c:	10800044 	addi	r2,r2,1
 4000310:	e0bffb15 	stw	r2,-20(fp)
// util methods 
void divideNumberIntoArray(int number, int *array)
{
	int i = 0;
	int arrayLength = 6;
	while (number > 0)
 4000314:	e0bffd17 	ldw	r2,-12(fp)
 4000318:	00bfe816 	blt	zero,r2,40002bc <__alt_mem_onchip_memory2_0+0xfbffe2bc>
	{
		array[arrayLength - 1 - i] = number % 10;
		number = number / 10;
		i++;
	}
}
 400031c:	0001883a 	nop
 4000320:	e6ffff04 	addi	sp,fp,-4
 4000324:	dfc00217 	ldw	ra,8(sp)
 4000328:	df000117 	ldw	fp,4(sp)
 400032c:	dc000017 	ldw	r16,0(sp)
 4000330:	dec00304 	addi	sp,sp,12
 4000334:	f800283a 	ret

04000338 <convertTo7segments>:

int convertTo7segments(int input)
{
 4000338:	defffe04 	addi	sp,sp,-8
 400033c:	df000115 	stw	fp,4(sp)
 4000340:	df000104 	addi	fp,sp,4
 4000344:	e13fff15 	stw	r4,-4(fp)
	switch (input)
 4000348:	e0bfff17 	ldw	r2,-4(fp)
 400034c:	10800428 	cmpgeui	r2,r2,16
 4000350:	1000371e 	bne	r2,zero,4000430 <convertTo7segments+0xf8>
 4000354:	e0bfff17 	ldw	r2,-4(fp)
 4000358:	100690ba 	slli	r3,r2,2
 400035c:	00810034 	movhi	r2,1024
 4000360:	1080dc04 	addi	r2,r2,880
 4000364:	1885883a 	add	r2,r3,r2
 4000368:	10800017 	ldw	r2,0(r2)
 400036c:	1000683a 	jmp	r2
 4000370:	040003b0 	cmpltui	r16,zero,14
 4000374:	040003b8 	rdprs	r16,zero,14
 4000378:	040003c0 	call	40003c <OSCtxSw_SWITCH_PC+0x3ffffc>
 400037c:	040003c8 	cmpgei	r16,zero,15
 4000380:	040003d0 	cmplti	r16,zero,15
 4000384:	040003d8 	cmpnei	r16,zero,15
 4000388:	040003e0 	cmpeqi	r16,zero,15
 400038c:	040003e8 	cmpgeui	r16,zero,15
 4000390:	040003f0 	cmpltui	r16,zero,15
 4000394:	040003f8 	rdprs	r16,zero,15
 4000398:	04000400 	call	400040 <OSCtxSw_SWITCH_PC+0x400000>
 400039c:	04000408 	cmpgei	r16,zero,16
 40003a0:	04000410 	cmplti	r16,zero,16
 40003a4:	04000418 	cmpnei	r16,zero,16
 40003a8:	04000420 	cmpeqi	r16,zero,16
 40003ac:	04000428 	cmpgeui	r16,zero,16
	{
	case 0:
		return 0b1000000;
 40003b0:	00801004 	movi	r2,64
 40003b4:	00001f06 	br	4000434 <convertTo7segments+0xfc>
	case 1:
		return 0b1111001;
 40003b8:	00801e44 	movi	r2,121
 40003bc:	00001d06 	br	4000434 <convertTo7segments+0xfc>
	case 2:
		return 0b0100100;
 40003c0:	00800904 	movi	r2,36
 40003c4:	00001b06 	br	4000434 <convertTo7segments+0xfc>
	case 3:
		return 0b0110000;
 40003c8:	00800c04 	movi	r2,48
 40003cc:	00001906 	br	4000434 <convertTo7segments+0xfc>
	case 4:
		return 0b0011001;
 40003d0:	00800644 	movi	r2,25
 40003d4:	00001706 	br	4000434 <convertTo7segments+0xfc>
	case 5:
		return 0b0010010;
 40003d8:	00800484 	movi	r2,18
 40003dc:	00001506 	br	4000434 <convertTo7segments+0xfc>
	case 6:
		return 0b0000010;
 40003e0:	00800084 	movi	r2,2
 40003e4:	00001306 	br	4000434 <convertTo7segments+0xfc>
	case 7:
		return 0b1111000;
 40003e8:	00801e04 	movi	r2,120
 40003ec:	00001106 	br	4000434 <convertTo7segments+0xfc>
	case 8:
		return 0b0000000;
 40003f0:	0005883a 	mov	r2,zero
 40003f4:	00000f06 	br	4000434 <convertTo7segments+0xfc>
	case 9:
		return 0b0010000;
 40003f8:	00800404 	movi	r2,16
 40003fc:	00000d06 	br	4000434 <convertTo7segments+0xfc>
	case 10:
		return 0b0001000;
 4000400:	00800204 	movi	r2,8
 4000404:	00000b06 	br	4000434 <convertTo7segments+0xfc>
	case 11:
		return 0b0000011;
 4000408:	008000c4 	movi	r2,3
 400040c:	00000906 	br	4000434 <convertTo7segments+0xfc>
	case 12:
		return 0b1000110;
 4000410:	00801184 	movi	r2,70
 4000414:	00000706 	br	4000434 <convertTo7segments+0xfc>
	case 13:
		return 0b0100001;
 4000418:	00800844 	movi	r2,33
 400041c:	00000506 	br	4000434 <convertTo7segments+0xfc>
	case 14:
		return 0b0000110;
 4000420:	00800184 	movi	r2,6
 4000424:	00000306 	br	4000434 <convertTo7segments+0xfc>
	case 15:
		return 0b0001110;
 4000428:	00800384 	movi	r2,14
 400042c:	00000106 	br	4000434 <convertTo7segments+0xfc>
	default:
		return 0x00;
 4000430:	0005883a 	mov	r2,zero
	}
}
 4000434:	e037883a 	mov	sp,fp
 4000438:	df000017 	ldw	fp,0(sp)
 400043c:	dec00104 	addi	sp,sp,4
 4000440:	f800283a 	ret

04000444 <displayDecimalNumber>:

void displayDecimalNumber(int number)
{
 4000444:	defff604 	addi	sp,sp,-40
 4000448:	dfc00915 	stw	ra,36(sp)
 400044c:	df000815 	stw	fp,32(sp)
 4000450:	dc000715 	stw	r16,28(sp)
 4000454:	df000804 	addi	fp,sp,32
 4000458:	e13ffe15 	stw	r4,-8(fp)
	int array[6] = {0, 0, 0, 0, 0, 0};
 400045c:	e03ff815 	stw	zero,-32(fp)
 4000460:	e03ff915 	stw	zero,-28(fp)
 4000464:	e03ffa15 	stw	zero,-24(fp)
 4000468:	e03ffb15 	stw	zero,-20(fp)
 400046c:	e03ffc15 	stw	zero,-16(fp)
 4000470:	e03ffd15 	stw	zero,-12(fp)
	divideNumberIntoArray(number, array);
 4000474:	e17ff804 	addi	r5,fp,-32
 4000478:	e13ffe17 	ldw	r4,-8(fp)
 400047c:	40002900 	call	4000290 <divideNumberIntoArray>
	IOWR_ALTERA_AVALON_PIO_DATA(hex0, convertTo7segments(array[5]));
 4000480:	00820034 	movhi	r2,2048
 4000484:	10942004 	addi	r2,r2,20608
 4000488:	1021883a 	mov	r16,r2
 400048c:	e0bffd17 	ldw	r2,-12(fp)
 4000490:	1009883a 	mov	r4,r2
 4000494:	40003380 	call	4000338 <convertTo7segments>
 4000498:	80800035 	stwio	r2,0(r16)
	IOWR_ALTERA_AVALON_PIO_DATA(hex1, convertTo7segments(array[4]));
 400049c:	00820034 	movhi	r2,2048
 40004a0:	10941c04 	addi	r2,r2,20592
 40004a4:	1021883a 	mov	r16,r2
 40004a8:	e0bffc17 	ldw	r2,-16(fp)
 40004ac:	1009883a 	mov	r4,r2
 40004b0:	40003380 	call	4000338 <convertTo7segments>
 40004b4:	80800035 	stwio	r2,0(r16)
	IOWR_ALTERA_AVALON_PIO_DATA(hex2, convertTo7segments(array[3]));
 40004b8:	00820034 	movhi	r2,2048
 40004bc:	10940804 	addi	r2,r2,20512
 40004c0:	1021883a 	mov	r16,r2
 40004c4:	e0bffb17 	ldw	r2,-20(fp)
 40004c8:	1009883a 	mov	r4,r2
 40004cc:	40003380 	call	4000338 <convertTo7segments>
 40004d0:	80800035 	stwio	r2,0(r16)
	IOWR_ALTERA_AVALON_PIO_DATA(hex3, convertTo7segments(array[2]));
 40004d4:	00820034 	movhi	r2,2048
 40004d8:	10941004 	addi	r2,r2,20544
 40004dc:	1021883a 	mov	r16,r2
 40004e0:	e0bffa17 	ldw	r2,-24(fp)
 40004e4:	1009883a 	mov	r4,r2
 40004e8:	40003380 	call	4000338 <convertTo7segments>
 40004ec:	80800035 	stwio	r2,0(r16)
	IOWR_ALTERA_AVALON_PIO_DATA(hex4, convertTo7segments(array[1]));
 40004f0:	00820034 	movhi	r2,2048
 40004f4:	10941404 	addi	r2,r2,20560
 40004f8:	1021883a 	mov	r16,r2
 40004fc:	e0bff917 	ldw	r2,-28(fp)
 4000500:	1009883a 	mov	r4,r2
 4000504:	40003380 	call	4000338 <convertTo7segments>
 4000508:	80800035 	stwio	r2,0(r16)
	IOWR_ALTERA_AVALON_PIO_DATA(hex5, convertTo7segments(array[0]));
 400050c:	00820034 	movhi	r2,2048
 4000510:	10941804 	addi	r2,r2,20576
 4000514:	1021883a 	mov	r16,r2
 4000518:	e0bff817 	ldw	r2,-32(fp)
 400051c:	1009883a 	mov	r4,r2
 4000520:	40003380 	call	4000338 <convertTo7segments>
 4000524:	80800035 	stwio	r2,0(r16)
}
 4000528:	0001883a 	nop
 400052c:	e6ffff04 	addi	sp,fp,-4
 4000530:	dfc00217 	ldw	ra,8(sp)
 4000534:	df000117 	ldw	fp,4(sp)
 4000538:	dc000017 	ldw	r16,0(sp)
 400053c:	dec00304 	addi	sp,sp,12
 4000540:	f800283a 	ret

04000544 <displayNothing>:

// 7 segments display methods 
void displayNothing()
{
 4000544:	deffff04 	addi	sp,sp,-4
 4000548:	df000015 	stw	fp,0(sp)
 400054c:	d839883a 	mov	fp,sp
	IOWR_ALTERA_AVALON_PIO_DATA(hex0, 0b1111111);
 4000550:	00820034 	movhi	r2,2048
 4000554:	10942004 	addi	r2,r2,20608
 4000558:	1007883a 	mov	r3,r2
 400055c:	00801fc4 	movi	r2,127
 4000560:	18800035 	stwio	r2,0(r3)
	IOWR_ALTERA_AVALON_PIO_DATA(hex1, 0b1111111);
 4000564:	00820034 	movhi	r2,2048
 4000568:	10941c04 	addi	r2,r2,20592
 400056c:	1007883a 	mov	r3,r2
 4000570:	00801fc4 	movi	r2,127
 4000574:	18800035 	stwio	r2,0(r3)
	IOWR_ALTERA_AVALON_PIO_DATA(hex2, 0b1111111);
 4000578:	00820034 	movhi	r2,2048
 400057c:	10940804 	addi	r2,r2,20512
 4000580:	1007883a 	mov	r3,r2
 4000584:	00801fc4 	movi	r2,127
 4000588:	18800035 	stwio	r2,0(r3)
	IOWR_ALTERA_AVALON_PIO_DATA(hex3, 0b1111111);
 400058c:	00820034 	movhi	r2,2048
 4000590:	10941004 	addi	r2,r2,20544
 4000594:	1007883a 	mov	r3,r2
 4000598:	00801fc4 	movi	r2,127
 400059c:	18800035 	stwio	r2,0(r3)
	IOWR_ALTERA_AVALON_PIO_DATA(hex4, 0b1111111);
 40005a0:	00820034 	movhi	r2,2048
 40005a4:	10941404 	addi	r2,r2,20560
 40005a8:	1007883a 	mov	r3,r2
 40005ac:	00801fc4 	movi	r2,127
 40005b0:	18800035 	stwio	r2,0(r3)
	IOWR_ALTERA_AVALON_PIO_DATA(hex5, 0b1111111);
 40005b4:	00820034 	movhi	r2,2048
 40005b8:	10941804 	addi	r2,r2,20576
 40005bc:	1007883a 	mov	r3,r2
 40005c0:	00801fc4 	movi	r2,127
 40005c4:	18800035 	stwio	r2,0(r3)
}
 40005c8:	0001883a 	nop
 40005cc:	e037883a 	mov	sp,fp
 40005d0:	df000017 	ldw	fp,0(sp)
 40005d4:	dec00104 	addi	sp,sp,4
 40005d8:	f800283a 	ret

040005dc <display0>:

void display0(){
 40005dc:	defffe04 	addi	sp,sp,-8
 40005e0:	dfc00115 	stw	ra,4(sp)
 40005e4:	df000015 	stw	fp,0(sp)
 40005e8:	d839883a 	mov	fp,sp
	displayDecimalNumber(0);
 40005ec:	0009883a 	mov	r4,zero
 40005f0:	40004440 	call	4000444 <displayDecimalNumber>
}
 40005f4:	0001883a 	nop
 40005f8:	e037883a 	mov	sp,fp
 40005fc:	dfc00117 	ldw	ra,4(sp)
 4000600:	df000017 	ldw	fp,0(sp)
 4000604:	dec00204 	addi	sp,sp,8
 4000608:	f800283a 	ret

0400060c <displayBinaryNumber>:

void displayBinaryNumber(int number)
{
 400060c:	defffd04 	addi	sp,sp,-12
 4000610:	dfc00215 	stw	ra,8(sp)
 4000614:	df000115 	stw	fp,4(sp)
 4000618:	df000104 	addi	fp,sp,4
 400061c:	e13fff15 	stw	r4,-4(fp)
	switch (number)
 4000620:	e0bfff17 	ldw	r2,-4(fp)
 4000624:	10c002e0 	cmpeqi	r3,r2,11
 4000628:	1800101e 	bne	r3,zero,400066c <displayBinaryNumber+0x60>
 400062c:	10c00308 	cmpgei	r3,r2,12
 4000630:	1800031e 	bne	r3,zero,4000640 <displayBinaryNumber+0x34>
 4000634:	108001e0 	cmpeqi	r2,r2,7
 4000638:	10000f1e 	bne	r2,zero,4000678 <displayBinaryNumber+0x6c>
		break;
	case 7:
		displayDecimalNumber(1);
		break;
	default:
		break;
 400063c:	00001106 	br	4000684 <displayBinaryNumber+0x78>
	displayDecimalNumber(0);
}

void displayBinaryNumber(int number)
{
	switch (number)
 4000640:	10c00360 	cmpeqi	r3,r2,13
 4000644:	1800061e 	bne	r3,zero,4000660 <displayBinaryNumber+0x54>
 4000648:	108003a0 	cmpeqi	r2,r2,14
 400064c:	1000011e 	bne	r2,zero,4000654 <displayBinaryNumber+0x48>
		break;
	case 7:
		displayDecimalNumber(1);
		break;
	default:
		break;
 4000650:	00000c06 	br	4000684 <displayBinaryNumber+0x78>
void displayBinaryNumber(int number)
{
	switch (number)
	{
	case 14:
		displayDecimalNumber(4);
 4000654:	01000104 	movi	r4,4
 4000658:	40004440 	call	4000444 <displayDecimalNumber>
		break;
 400065c:	00000906 	br	4000684 <displayBinaryNumber+0x78>
	case 13:
		displayDecimalNumber(3);
 4000660:	010000c4 	movi	r4,3
 4000664:	40004440 	call	4000444 <displayDecimalNumber>
		break;
 4000668:	00000606 	br	4000684 <displayBinaryNumber+0x78>
	case 11:
		displayDecimalNumber(2);
 400066c:	01000084 	movi	r4,2
 4000670:	40004440 	call	4000444 <displayDecimalNumber>
		break;
 4000674:	00000306 	br	4000684 <displayBinaryNumber+0x78>
	case 7:
		displayDecimalNumber(1);
 4000678:	01000044 	movi	r4,1
 400067c:	40004440 	call	4000444 <displayDecimalNumber>
		break;
 4000680:	0001883a 	nop
	default:
		break;
	}
}
 4000684:	0001883a 	nop
 4000688:	e037883a 	mov	sp,fp
 400068c:	dfc00117 	ldw	ra,4(sp)
 4000690:	df000017 	ldw	fp,0(sp)
 4000694:	dec00204 	addi	sp,sp,8
 4000698:	f800283a 	ret

0400069c <ledOff>:


// leds
void ledOff()
{
 400069c:	deffff04 	addi	sp,sp,-4
 40006a0:	df000015 	stw	fp,0(sp)
 40006a4:	d839883a 	mov	fp,sp
	IOWR_ALTERA_AVALON_PIO_DATA(leds, 0b0000000000);
 40006a8:	00820034 	movhi	r2,2048
 40006ac:	10942804 	addi	r2,r2,20640
 40006b0:	0007883a 	mov	r3,zero
 40006b4:	10c00035 	stwio	r3,0(r2)
}
 40006b8:	0001883a 	nop
 40006bc:	e037883a 	mov	sp,fp
 40006c0:	df000017 	ldw	fp,0(sp)
 40006c4:	dec00104 	addi	sp,sp,4
 40006c8:	f800283a 	ret

040006cc <ledOn>:

void ledOn()
{
 40006cc:	deffff04 	addi	sp,sp,-4
 40006d0:	df000015 	stw	fp,0(sp)
 40006d4:	d839883a 	mov	fp,sp
	IOWR_ALTERA_AVALON_PIO_DATA(leds, 0b1111111111);
 40006d8:	00820034 	movhi	r2,2048
 40006dc:	10942804 	addi	r2,r2,20640
 40006e0:	1007883a 	mov	r3,r2
 40006e4:	0080ffc4 	movi	r2,1023
 40006e8:	18800035 	stwio	r2,0(r3)
}
 40006ec:	0001883a 	nop
 40006f0:	e037883a 	mov	sp,fp
 40006f4:	df000017 	ldw	fp,0(sp)
 40006f8:	dec00104 	addi	sp,sp,4
 40006fc:	f800283a 	ret

04000700 <oddLedsOn>:

void oddLedsOn()
{
 4000700:	deffff04 	addi	sp,sp,-4
 4000704:	df000015 	stw	fp,0(sp)
 4000708:	d839883a 	mov	fp,sp
	IOWR_ALTERA_AVALON_PIO_DATA(leds, 0b0101010101);
 400070c:	00820034 	movhi	r2,2048
 4000710:	10942804 	addi	r2,r2,20640
 4000714:	1007883a 	mov	r3,r2
 4000718:	00805544 	movi	r2,341
 400071c:	18800035 	stwio	r2,0(r3)
}
 4000720:	0001883a 	nop
 4000724:	e037883a 	mov	sp,fp
 4000728:	df000017 	ldw	fp,0(sp)
 400072c:	dec00104 	addi	sp,sp,4
 4000730:	f800283a 	ret

04000734 <evenLedsOn>:

void evenLedsOn()
{
 4000734:	deffff04 	addi	sp,sp,-4
 4000738:	df000015 	stw	fp,0(sp)
 400073c:	d839883a 	mov	fp,sp
	IOWR_ALTERA_AVALON_PIO_DATA(leds, 0b1010101010);
 4000740:	00820034 	movhi	r2,2048
 4000744:	10942804 	addi	r2,r2,20640
 4000748:	1007883a 	mov	r3,r2
 400074c:	0080aa84 	movi	r2,682
 4000750:	18800035 	stwio	r2,0(r3)
} 
 4000754:	0001883a 	nop
 4000758:	e037883a 	mov	sp,fp
 400075c:	df000017 	ldw	fp,0(sp)
 4000760:	dec00104 	addi	sp,sp,4
 4000764:	f800283a 	ret

04000768 <runC2>:

// run exercices 
void runC2()
{
 4000768:	defffd04 	addi	sp,sp,-12
 400076c:	dfc00215 	stw	ra,8(sp)
 4000770:	df000115 	stw	fp,4(sp)
 4000774:	df000104 	addi	fp,sp,4
	displayNothing();
 4000778:	40005440 	call	4000544 <displayNothing>

	usleep(1000000);
 400077c:	010003f4 	movhi	r4,15
 4000780:	21109004 	addi	r4,r4,16960
 4000784:	4011bb40 	call	4011bb4 <usleep>

	for (int k = 0; k <= 9999; k++)
 4000788:	e03fff15 	stw	zero,-4(fp)
 400078c:	00000706 	br	40007ac <runC2+0x44>
	{
		displayDecimalNumber(k);
 4000790:	e13fff17 	ldw	r4,-4(fp)
 4000794:	40004440 	call	4000444 <displayDecimalNumber>
		usleep(10000);
 4000798:	0109c404 	movi	r4,10000
 400079c:	4011bb40 	call	4011bb4 <usleep>
{
	displayNothing();

	usleep(1000000);

	for (int k = 0; k <= 9999; k++)
 40007a0:	e0bfff17 	ldw	r2,-4(fp)
 40007a4:	10800044 	addi	r2,r2,1
 40007a8:	e0bfff15 	stw	r2,-4(fp)
 40007ac:	e0bfff17 	ldw	r2,-4(fp)
 40007b0:	1089c410 	cmplti	r2,r2,10000
 40007b4:	103ff61e 	bne	r2,zero,4000790 <__alt_mem_onchip_memory2_0+0xfbffe790>
		usleep(10000);
	}

	for (;;)
	{
		usleep(100000);
 40007b8:	010000b4 	movhi	r4,2
 40007bc:	2121a804 	addi	r4,r4,-31072
 40007c0:	4011bb40 	call	4011bb4 <usleep>
		displayDecimalNumber(9999);
 40007c4:	0109c3c4 	movi	r4,9999
 40007c8:	40004440 	call	4000444 <displayDecimalNumber>
		usleep(100000);
 40007cc:	010000b4 	movhi	r4,2
 40007d0:	2121a804 	addi	r4,r4,-31072
 40007d4:	4011bb40 	call	4011bb4 <usleep>
		displayNothing();
 40007d8:	40005440 	call	4000544 <displayNothing>
	}
 40007dc:	003ff606 	br	40007b8 <__alt_mem_onchip_memory2_0+0xfbffe7b8>

040007e0 <handle_button_interrupts>:

volatile int edge_capture;
volatile float averageTime;

static void handle_button_interrupts(void *context, alt_u32 id)
{
 40007e0:	defffb04 	addi	sp,sp,-20
 40007e4:	dfc00415 	stw	ra,16(sp)
 40007e8:	df000315 	stw	fp,12(sp)
 40007ec:	df000304 	addi	fp,sp,12
 40007f0:	e13ffe15 	stw	r4,-8(fp)
 40007f4:	e17fff15 	stw	r5,-4(fp)
	/* Cast context to edge_capture's type. It is important that this be
	 * declared volatile to avoid unwanted compiler optimization.
	 */
	volatile int *edge_capture_ptr = (volatile int *)context;
 40007f8:	e0bffe17 	ldw	r2,-8(fp)
 40007fc:	e0bffd15 	stw	r2,-12(fp)

	/* Store the value in the Button's edge capture register in *context. */
	*edge_capture_ptr = IORD_ALTERA_AVALON_PIO_EDGE_CAP(key);
 4000800:	00820034 	movhi	r2,2048
 4000804:	10940c04 	addi	r2,r2,20528
 4000808:	10800304 	addi	r2,r2,12
 400080c:	10c00037 	ldwio	r3,0(r2)
 4000810:	e0bffd17 	ldw	r2,-12(fp)
 4000814:	10c00015 	stw	r3,0(r2)

	/* Reset the Button's edge capture register. */
	IOWR_ALTERA_AVALON_PIO_EDGE_CAP(key, 0);
 4000818:	00820034 	movhi	r2,2048
 400081c:	10940c04 	addi	r2,r2,20528
 4000820:	10800304 	addi	r2,r2,12
 4000824:	0007883a 	mov	r3,zero
 4000828:	10c00035 	stwio	r3,0(r2)

	//if we push the first button, we start the game
	if(*edge_capture_ptr==1){
 400082c:	e0bffd17 	ldw	r2,-12(fp)
 4000830:	10800017 	ldw	r2,0(r2)
 4000834:	10800058 	cmpnei	r2,r2,1
 4000838:	1000031e 	bne	r2,zero,4000848 <handle_button_interrupts+0x68>
		wantToPlayAGame=true;
 400083c:	00800044 	movi	r2,1
 4000840:	d0a72615 	stw	r2,-25448(gp)

	//we push the fourth button to play the game
	else if(*edge_capture_ptr==8){
		stopGame=true;
	}
}
 4000844:	00001d06 	br	40008bc <handle_button_interrupts+0xdc>
	//if we push the first button, we start the game
	if(*edge_capture_ptr==1){
		wantToPlayAGame=true;
	}
	//if we push the second button, we show the average time since the beginning of the game
	else if(*edge_capture_ptr==2){
 4000848:	e0bffd17 	ldw	r2,-12(fp)
 400084c:	10800017 	ldw	r2,0(r2)
 4000850:	10800098 	cmpnei	r2,r2,2
 4000854:	10000c1e 	bne	r2,zero,4000888 <handle_button_interrupts+0xa8>
		averageTime=totalTime/nbTry;
 4000858:	d0a72917 	ldw	r2,-25436(gp)
 400085c:	d0e72817 	ldw	r3,-25440(gp)
 4000860:	180b883a 	mov	r5,r3
 4000864:	1009883a 	mov	r4,r2
 4000868:	4000d3c0 	call	4000d3c <__divsi3>
 400086c:	1009883a 	mov	r4,r2
 4000870:	4000f600 	call	4000f60 <__floatsisf>
 4000874:	1007883a 	mov	r3,r2
 4000878:	d0e72c15 	stw	r3,-25424(gp)
		//displayDecimalNumber(averageTime);
		triggerAverage1_3=true;
 400087c:	00800044 	movi	r2,1
 4000880:	d0a72b15 	stw	r2,-25428(gp)

	//we push the fourth button to play the game
	else if(*edge_capture_ptr==8){
		stopGame=true;
	}
}
 4000884:	00000d06 	br	40008bc <handle_button_interrupts+0xdc>
		triggerAverage1_3=true;
	}

	/* Perform the button press handling code here. */
	//Nothing in particular for the 3rd button
	else if(*edge_capture_ptr==4){
 4000888:	e0bffd17 	ldw	r2,-12(fp)
 400088c:	10800017 	ldw	r2,0(r2)
 4000890:	10800118 	cmpnei	r2,r2,4
 4000894:	1000031e 	bne	r2,zero,40008a4 <handle_button_interrupts+0xc4>
		nbTry=0;
 4000898:	d0272815 	stw	zero,-25440(gp)
		totalTime=0;
 400089c:	d0272915 	stw	zero,-25436(gp)

	//we push the fourth button to play the game
	else if(*edge_capture_ptr==8){
		stopGame=true;
	}
}
 40008a0:	00000606 	br	40008bc <handle_button_interrupts+0xdc>
		nbTry=0;
		totalTime=0;
	}

	//we push the fourth button to play the game
	else if(*edge_capture_ptr==8){
 40008a4:	e0bffd17 	ldw	r2,-12(fp)
 40008a8:	10800017 	ldw	r2,0(r2)
 40008ac:	10800218 	cmpnei	r2,r2,8
 40008b0:	1000021e 	bne	r2,zero,40008bc <handle_button_interrupts+0xdc>
		stopGame=true;
 40008b4:	00800044 	movi	r2,1
 40008b8:	d0a72715 	stw	r2,-25444(gp)
	}
}
 40008bc:	0001883a 	nop
 40008c0:	e037883a 	mov	sp,fp
 40008c4:	dfc00117 	ldw	ra,4(sp)
 40008c8:	df000017 	ldw	fp,0(sp)
 40008cc:	dec00204 	addi	sp,sp,8
 40008d0:	f800283a 	ret

040008d4 <init_button_pio>:

static void init_button_pio()
{
 40008d4:	defffd04 	addi	sp,sp,-12
 40008d8:	dfc00215 	stw	ra,8(sp)
 40008dc:	df000115 	stw	fp,4(sp)
 40008e0:	df000104 	addi	fp,sp,4
	/* Recast the edge_capture pointer to match the alt_irq_register() function
	 * prototype. */
	void *edge_capture_ptr = (void *)&edge_capture;
 40008e4:	d0a72e04 	addi	r2,gp,-25416
 40008e8:	e0bfff15 	stw	r2,-4(fp)

	/* Enable all 4 button interrupts. */
	IOWR_ALTERA_AVALON_PIO_IRQ_MASK(key, 0xf);
 40008ec:	00820034 	movhi	r2,2048
 40008f0:	10940c04 	addi	r2,r2,20528
 40008f4:	10800204 	addi	r2,r2,8
 40008f8:	1007883a 	mov	r3,r2
 40008fc:	008003c4 	movi	r2,15
 4000900:	18800035 	stwio	r2,0(r3)

	/* Reset the edge capture register. */
	IOWR_ALTERA_AVALON_PIO_EDGE_CAP(key, 0x0);
 4000904:	00820034 	movhi	r2,2048
 4000908:	10940c04 	addi	r2,r2,20528
 400090c:	10800304 	addi	r2,r2,12
 4000910:	0007883a 	mov	r3,zero
 4000914:	10c00035 	stwio	r3,0(r2)

	/* Register the ISR */
	alt_irq_register(KEY_IRQ, edge_capture_ptr, handle_button_interrupts);
 4000918:	01810034 	movhi	r6,1024
 400091c:	3181f804 	addi	r6,r6,2016
 4000920:	e17fff17 	ldw	r5,-4(fp)
 4000924:	01000084 	movi	r4,2
 4000928:	40114500 	call	4011450 <alt_irq_register>
}
 400092c:	0001883a 	nop
 4000930:	e037883a 	mov	sp,fp
 4000934:	dfc00117 	ldw	ra,4(sp)
 4000938:	df000017 	ldw	fp,0(sp)
 400093c:	dec00204 	addi	sp,sp,8
 4000940:	f800283a 	ret

04000944 <play>:


void play(){
 4000944:	defff104 	addi	sp,sp,-60
 4000948:	dfc00e15 	stw	ra,56(sp)
 400094c:	df000d15 	stw	fp,52(sp)
 4000950:	df000d04 	addi	fp,sp,52
	nbTry++;
 4000954:	d0a72817 	ldw	r2,-25440(gp)
 4000958:	10800044 	addi	r2,r2,1
 400095c:	d0a72815 	stw	r2,-25440(gp)

	// wait for a random time between 1 and 5 seconds
	int randomTime = rand() % time + 1;
 4000960:	40015a00 	call	40015a0 <rand>
 4000964:	1007883a 	mov	r3,r2
 4000968:	d0a72a17 	ldw	r2,-25432(gp)
 400096c:	100b883a 	mov	r5,r2
 4000970:	1809883a 	mov	r4,r3
 4000974:	4000dc00 	call	4000dc0 <__modsi3>
 4000978:	10800044 	addi	r2,r2,1
 400097c:	e0bff415 	stw	r2,-48(fp)
	printf("random time : %d\n", randomTime);
 4000980:	e17ff417 	ldw	r5,-48(fp)
 4000984:	010100b4 	movhi	r4,1026
 4000988:	21326b04 	addi	r4,r4,-13908
 400098c:	40014780 	call	4001478 <printf>
	for (int i = 0; i < randomTime; i++)
 4000990:	e03ff315 	stw	zero,-52(fp)
 4000994:	00000b06 	br	40009c4 <play+0x80>
	{
		usleep(500000);
 4000998:	01000234 	movhi	r4,8
 400099c:	21284804 	addi	r4,r4,-24288
 40009a0:	4011bb40 	call	4011bb4 <usleep>
		evenLedsOn();
 40009a4:	40007340 	call	4000734 <evenLedsOn>
		usleep(500000);
 40009a8:	01000234 	movhi	r4,8
 40009ac:	21284804 	addi	r4,r4,-24288
 40009b0:	4011bb40 	call	4011bb4 <usleep>
		oddLedsOn();
 40009b4:	40007000 	call	4000700 <oddLedsOn>
	nbTry++;

	// wait for a random time between 1 and 5 seconds
	int randomTime = rand() % time + 1;
	printf("random time : %d\n", randomTime);
	for (int i = 0; i < randomTime; i++)
 40009b8:	e0bff317 	ldw	r2,-52(fp)
 40009bc:	10800044 	addi	r2,r2,1
 40009c0:	e0bff315 	stw	r2,-52(fp)
 40009c4:	e0fff317 	ldw	r3,-52(fp)
 40009c8:	e0bff417 	ldw	r2,-48(fp)
 40009cc:	18bff216 	blt	r3,r2,4000998 <__alt_mem_onchip_memory2_0+0xfbffe998>
		oddLedsOn();
	}

	
	INT32U end;
	INT32U start=OSTimeGet();
 40009d0:	401a2dc0 	call	401a2dc <OSTimeGet>
 40009d4:	e0bff515 	stw	r2,-44(fp)
	ledOn();
 40009d8:	40006cc0 	call	40006cc <ledOn>

	while (!stopGame)
 40009dc:	0001883a 	nop
 40009e0:	d0a72717 	ldw	r2,-25444(gp)
 40009e4:	103ffe26 	beq	r2,zero,40009e0 <__alt_mem_onchip_memory2_0+0xfbffe9e0>
	{
		// wait for the user to press the button
	}

	end = OSTimeGet();
 40009e8:	401a2dc0 	call	401a2dc <OSTimeGet>
 40009ec:	e0bff615 	stw	r2,-40(fp)

	// display the time
	// print end and start
	printf("end : %lu\n", end);
 40009f0:	e17ff617 	ldw	r5,-40(fp)
 40009f4:	010100b4 	movhi	r4,1026
 40009f8:	21327004 	addi	r4,r4,-13888
 40009fc:	40014780 	call	4001478 <printf>
	printf("start : %lu\n", start);
 4000a00:	e17ff517 	ldw	r5,-44(fp)
 4000a04:	010100b4 	movhi	r4,1026
 4000a08:	21327304 	addi	r4,r4,-13876
 4000a0c:	40014780 	call	4001478 <printf>

	float time = (end - start)/1.0;
 4000a10:	e0fff617 	ldw	r3,-40(fp)
 4000a14:	e0bff517 	ldw	r2,-44(fp)
 4000a18:	1885c83a 	sub	r2,r3,r2
 4000a1c:	1009883a 	mov	r4,r2
 4000a20:	40010840 	call	4001084 <__floatunsidf>
 4000a24:	100b883a 	mov	r5,r2
 4000a28:	180d883a 	mov	r6,r3
 4000a2c:	2809883a 	mov	r4,r5
 4000a30:	300b883a 	mov	r5,r6
 4000a34:	400123c0 	call	400123c <__truncdfsf2>
 4000a38:	1007883a 	mov	r3,r2
 4000a3c:	e0fff715 	stw	r3,-36(fp)
	//printf("time : %d", time);
	totalTime += (int)time;
 4000a40:	e13ff717 	ldw	r4,-36(fp)
 4000a44:	4000ef00 	call	4000ef0 <__fixsfsi>
 4000a48:	1007883a 	mov	r3,r2
 4000a4c:	d0a72917 	ldw	r2,-25436(gp)
 4000a50:	1885883a 	add	r2,r3,r2
 4000a54:	d0a72915 	stw	r2,-25436(gp)
	displayDecimalNumber(time);
 4000a58:	e13ff717 	ldw	r4,-36(fp)
 4000a5c:	4000ef00 	call	4000ef0 <__fixsfsi>
 4000a60:	1009883a 	mov	r4,r2
 4000a64:	40004440 	call	4000444 <displayDecimalNumber>

	// clean variables
	stopGame=false;
 4000a68:	d0272715 	stw	zero,-25444(gp)

	printf("sent time : %f\n", time);
 4000a6c:	e13ff717 	ldw	r4,-36(fp)
 4000a70:	400112c0 	call	400112c <__extendsfdf2>
 4000a74:	100d883a 	mov	r6,r2
 4000a78:	180f883a 	mov	r7,r3
 4000a7c:	300b883a 	mov	r5,r6
 4000a80:	380d883a 	mov	r6,r7
 4000a84:	010100b4 	movhi	r4,1026
 4000a88:	21327704 	addi	r4,r4,-13860
 4000a8c:	40014780 	call	4001478 <printf>
	char message[30];

	sprintf(message, "%f", time);
 4000a90:	e13ff717 	ldw	r4,-36(fp)
 4000a94:	400112c0 	call	400112c <__extendsfdf2>
 4000a98:	1009883a 	mov	r4,r2
 4000a9c:	180b883a 	mov	r5,r3
 4000aa0:	e0bff804 	addi	r2,fp,-32
 4000aa4:	200d883a 	mov	r6,r4
 4000aa8:	280f883a 	mov	r7,r5
 4000aac:	014100b4 	movhi	r5,1026
 4000ab0:	29727b04 	addi	r5,r5,-13844
 4000ab4:	1009883a 	mov	r4,r2
 4000ab8:	400165c0 	call	400165c <sprintf>
	OSQPost(msgQueue, (void *)message);
 4000abc:	d0a73317 	ldw	r2,-25396(gp)
 4000ac0:	e0fff804 	addi	r3,fp,-32
 4000ac4:	180b883a 	mov	r5,r3
 4000ac8:	1009883a 	mov	r4,r2
 4000acc:	40175fc0 	call	40175fc <OSQPost>
}
 4000ad0:	0001883a 	nop
 4000ad4:	e037883a 	mov	sp,fp
 4000ad8:	dfc00117 	ldw	ra,4(sp)
 4000adc:	df000017 	ldw	fp,0(sp)
 4000ae0:	dec00204 	addi	sp,sp,8
 4000ae4:	f800283a 	ret

04000ae8 <task1>:


/* Prints "Hello World" and sleeps for three seconds */
void task1(void* pdata)
{
 4000ae8:	defff404 	addi	sp,sp,-48
 4000aec:	dfc00b15 	stw	ra,44(sp)
 4000af0:	df000a15 	stw	fp,40(sp)
 4000af4:	df000a04 	addi	fp,sp,40
 4000af8:	e13fff15 	stw	r4,-4(fp)
	INT8U err;
	char message[30];
	char* message2 = "Hello";
 4000afc:	008100b4 	movhi	r2,1026
 4000b00:	10b27c04 	addi	r2,r2,-13840
 4000b04:	e0bff615 	stw	r2,-40(fp)
	averageTime=0;
 4000b08:	d0272c15 	stw	zero,-25424(gp)
	while (1)
	{
		if(wantToPlayAGame){
 4000b0c:	d0a72617 	ldw	r2,-25448(gp)
 4000b10:	10000d26 	beq	r2,zero,4000b48 <task1+0x60>
			OSMboxPost(mailBox1_2, (void *)message2);
 4000b14:	d0a72d17 	ldw	r2,-25420(gp)
 4000b18:	e17ff617 	ldw	r5,-40(fp)
 4000b1c:	1009883a 	mov	r4,r2
 4000b20:	40161100 	call	4016110 <OSMboxPost>
			OSMboxPend(mailBox3_1, 0, &err);
 4000b24:	d0a73217 	ldw	r2,-25400(gp)
 4000b28:	e0fff704 	addi	r3,fp,-36
 4000b2c:	180d883a 	mov	r6,r3
 4000b30:	000b883a 	mov	r5,zero
 4000b34:	1009883a 	mov	r4,r2
 4000b38:	4015d700 	call	4015d70 <OSMboxPend>
			wantToPlayAGame=false;
 4000b3c:	d0272615 	stw	zero,-25448(gp)
			stopGame=false;
 4000b40:	d0272715 	stw	zero,-25444(gp)
			triggerAverage1_3=false;
 4000b44:	d0272b15 	stw	zero,-25428(gp)
		}

		if (triggerAverage1_3)
 4000b48:	d0a72b17 	ldw	r2,-25428(gp)
 4000b4c:	103fef26 	beq	r2,zero,4000b0c <__alt_mem_onchip_memory2_0+0xfbffeb0c>
		{
			OSQPost(msgQueue,(void *)&averageTime);
 4000b50:	d0a73317 	ldw	r2,-25396(gp)
 4000b54:	d1672c04 	addi	r5,gp,-25424
 4000b58:	1009883a 	mov	r4,r2
 4000b5c:	40175fc0 	call	40175fc <OSQPost>
			OSMboxPend(mailBox3_1, 0, &err);
 4000b60:	d0a73217 	ldw	r2,-25400(gp)
 4000b64:	e0fff704 	addi	r3,fp,-36
 4000b68:	180d883a 	mov	r6,r3
 4000b6c:	000b883a 	mov	r5,zero
 4000b70:	1009883a 	mov	r4,r2
 4000b74:	4015d700 	call	4015d70 <OSMboxPend>
			triggerAverage1_3=false;
 4000b78:	d0272b15 	stw	zero,-25428(gp)
		//sprintf(message, "%d", cpt);
		//cpt++;
		//OSMboxPost(mailBox1_2,(void *)message);
		//OSQPost(msgQueue,(void *)message);
		//OSTimeDlyHMSM(0, 0, 1, 0);
	}
 4000b7c:	003fe306 	br	4000b0c <__alt_mem_onchip_memory2_0+0xfbffeb0c>

04000b80 <task2>:
}
/* Prints "Hello World" and sleeps for three seconds */
void task2(void* pdata)
{
 4000b80:	defffc04 	addi	sp,sp,-16
 4000b84:	dfc00315 	stw	ra,12(sp)
 4000b88:	df000215 	stw	fp,8(sp)
 4000b8c:	df000204 	addi	fp,sp,8
 4000b90:	e13fff15 	stw	r4,-4(fp)
	INT8U err;
	int message;
	while (1)
	{
		OSMboxPend(mailBox1_2, 0, &err);
 4000b94:	d0a72d17 	ldw	r2,-25420(gp)
 4000b98:	e1bffe04 	addi	r6,fp,-8
 4000b9c:	000b883a 	mov	r5,zero
 4000ba0:	1009883a 	mov	r4,r2
 4000ba4:	4015d700 	call	4015d70 <OSMboxPend>
		play();
 4000ba8:	40009440 	call	4000944 <play>
		wantToPlayAGame=false;
 4000bac:	d0272615 	stw	zero,-25448(gp)

		//message = atoi(OSMboxPend(mailBox1_2,0,&err));
		//message = atoi(OSQPend(msgQueue,0,&err));
		//displayDecimalNumber(message);
		//OSTimeDlyHMSM(0, 0, 1, 0);
	}
 4000bb0:	003ff806 	br	4000b94 <__alt_mem_onchip_memory2_0+0xfbffeb94>

04000bb4 <task3>:
}

void task3(void* pdata) {
 4000bb4:	defffa04 	addi	sp,sp,-24
 4000bb8:	dfc00515 	stw	ra,20(sp)
 4000bbc:	df000415 	stw	fp,16(sp)
 4000bc0:	df000404 	addi	fp,sp,16
 4000bc4:	e13fff15 	stw	r4,-4(fp)

	int* time;
	INT8U err;
	char* message="Hello";
 4000bc8:	008100b4 	movhi	r2,1026
 4000bcc:	10b27c04 	addi	r2,r2,-13840
 4000bd0:	e0bffc15 	stw	r2,-16(fp)
	while (1) {
		time = (int*)OSQPend(msgQueue, 0, &err);
 4000bd4:	d0a73317 	ldw	r2,-25396(gp)
 4000bd8:	e0fffe04 	addi	r3,fp,-8
 4000bdc:	180d883a 	mov	r6,r3
 4000be0:	000b883a 	mov	r5,zero
 4000be4:	1009883a 	mov	r4,r2
 4000be8:	40172040 	call	4017204 <OSQPend>
 4000bec:	e0bffd15 	stw	r2,-12(fp)
		displayDecimalNumber(time);
 4000bf0:	e0bffd17 	ldw	r2,-12(fp)
 4000bf4:	1009883a 	mov	r4,r2
 4000bf8:	40004440 	call	4000444 <displayDecimalNumber>
		OSMboxPost(mailBox3_1, (void *)message);
 4000bfc:	d0a73217 	ldw	r2,-25400(gp)
 4000c00:	e17ffc17 	ldw	r5,-16(fp)
 4000c04:	1009883a 	mov	r4,r2
 4000c08:	40161100 	call	4016110 <OSMboxPost>
	}
 4000c0c:	003ff106 	br	4000bd4 <__alt_mem_onchip_memory2_0+0xfbffebd4>

04000c10 <main>:

}
/* The main function creates two task and starts multi-tasking */
int main(void)
{
 4000c10:	defff804 	addi	sp,sp,-32
 4000c14:	dfc00715 	stw	ra,28(sp)
 4000c18:	df000615 	stw	fp,24(sp)
 4000c1c:	df000604 	addi	fp,sp,24

	averageTime=0;
 4000c20:	d0272c15 	stw	zero,-25424(gp)
	mailBox1_2=OSMboxCreate((void *)0);
 4000c24:	0009883a 	mov	r4,zero
 4000c28:	4015a5c0 	call	4015a5c <OSMboxCreate>
 4000c2c:	d0a72d15 	stw	r2,-25420(gp)
	mailBox3_1=OSMboxCreate((void *)0);
 4000c30:	0009883a 	mov	r4,zero
 4000c34:	4015a5c0 	call	4015a5c <OSMboxCreate>
 4000c38:	d0a73215 	stw	r2,-25400(gp)
	msgQueue = OSQCreate(&msgQueueTbl[0],MSG_QUEUE_SIZE);
 4000c3c:	01400504 	movi	r5,20
 4000c40:	010100b4 	movhi	r4,1026
 4000c44:	2109ab04 	addi	r4,r4,9900
 4000c48:	4016d200 	call	4016d20 <OSQCreate>
 4000c4c:	d0a73315 	stw	r2,-25396(gp)
	printf("Starting C2\n");
 4000c50:	010100b4 	movhi	r4,1026
 4000c54:	21327e04 	addi	r4,r4,-13832
 4000c58:	40015740 	call	4001574 <puts>

	displayNothing();
 4000c5c:	40005440 	call	4000544 <displayNothing>
	ledOff();
 4000c60:	400069c0 	call	400069c <ledOff>

	init_button_pio();
 4000c64:	40008d40 	call	40008d4 <init_button_pio>

	int switchValue = IORD_ALTERA_AVALON_PIO_DATA(switches); // 10 switches returned as an int
 4000c68:	00820034 	movhi	r2,2048
 4000c6c:	10942404 	addi	r2,r2,20624
 4000c70:	10800037 	ldwio	r2,0(r2)
 4000c74:	e0bfff15 	stw	r2,-4(fp)
	time = IORD_ALTERA_AVALON_PIO_DATA(switches) - 511;
 4000c78:	00820034 	movhi	r2,2048
 4000c7c:	10942404 	addi	r2,r2,20624
 4000c80:	10800037 	ldwio	r2,0(r2)
 4000c84:	10bf8044 	addi	r2,r2,-511
 4000c88:	d0a72a15 	stw	r2,-25432(gp)
	IOWR_ALTERA_AVALON_PIO_DATA(leds, switchValue);
 4000c8c:	00820034 	movhi	r2,2048
 4000c90:	10942804 	addi	r2,r2,20640
 4000c94:	1007883a 	mov	r3,r2
 4000c98:	e0bfff17 	ldw	r2,-4(fp)
 4000c9c:	18800035 	stwio	r2,0(r3)

	OSTaskCreateExt(task1,
 4000ca0:	d8000415 	stw	zero,16(sp)
 4000ca4:	d8000315 	stw	zero,12(sp)
 4000ca8:	00820004 	movi	r2,2048
 4000cac:	d8800215 	stw	r2,8(sp)
 4000cb0:	008100b4 	movhi	r2,1026
 4000cb4:	1081ab04 	addi	r2,r2,1708
 4000cb8:	d8800115 	stw	r2,4(sp)
 4000cbc:	00800044 	movi	r2,1
 4000cc0:	d8800015 	stw	r2,0(sp)
 4000cc4:	01c00044 	movi	r7,1
 4000cc8:	018100b4 	movhi	r6,1026
 4000ccc:	3189aa04 	addi	r6,r6,9896
 4000cd0:	000b883a 	mov	r5,zero
 4000cd4:	01010034 	movhi	r4,1024
 4000cd8:	2102ba04 	addi	r4,r4,2792
 4000cdc:	4018de00 	call	4018de0 <OSTaskCreateExt>
			TASK_STACKSIZE,
			NULL,
			0);


	OSTaskCreateExt(task2,
 4000ce0:	d8000415 	stw	zero,16(sp)
 4000ce4:	d8000315 	stw	zero,12(sp)
 4000ce8:	00820004 	movi	r2,2048
 4000cec:	d8800215 	stw	r2,8(sp)
 4000cf0:	008100b4 	movhi	r2,1026
 4000cf4:	1089da04 	addi	r2,r2,10088
 4000cf8:	d8800115 	stw	r2,4(sp)
 4000cfc:	00800084 	movi	r2,2
 4000d00:	d8800015 	stw	r2,0(sp)
 4000d04:	01c00084 	movi	r7,2
 4000d08:	018100b4 	movhi	r6,1026
 4000d0c:	3191d904 	addi	r6,r6,18276
 4000d10:	000b883a 	mov	r5,zero
 4000d14:	01010034 	movhi	r4,1024
 4000d18:	2102e004 	addi	r4,r4,2944
 4000d1c:	4018de00 	call	4018de0 <OSTaskCreateExt>
			TASK2_PRIORITY,
			task2_stk,
			TASK_STACKSIZE,
			NULL,
			0);
	OSStart();
 4000d20:	4012c800 	call	4012c80 <OSStart>
	return 0;
 4000d24:	0005883a 	mov	r2,zero
}
 4000d28:	e037883a 	mov	sp,fp
 4000d2c:	dfc00117 	ldw	ra,4(sp)
 4000d30:	df000017 	ldw	fp,0(sp)
 4000d34:	dec00204 	addi	sp,sp,8
 4000d38:	f800283a 	ret

04000d3c <__divsi3>:
 4000d3c:	20001b16 	blt	r4,zero,4000dac <__divsi3+0x70>
 4000d40:	000f883a 	mov	r7,zero
 4000d44:	28001616 	blt	r5,zero,4000da0 <__divsi3+0x64>
 4000d48:	200d883a 	mov	r6,r4
 4000d4c:	29001a2e 	bgeu	r5,r4,4000db8 <__divsi3+0x7c>
 4000d50:	00800804 	movi	r2,32
 4000d54:	00c00044 	movi	r3,1
 4000d58:	00000106 	br	4000d60 <__divsi3+0x24>
 4000d5c:	10000d26 	beq	r2,zero,4000d94 <__divsi3+0x58>
 4000d60:	294b883a 	add	r5,r5,r5
 4000d64:	10bfffc4 	addi	r2,r2,-1
 4000d68:	18c7883a 	add	r3,r3,r3
 4000d6c:	293ffb36 	bltu	r5,r4,4000d5c <__alt_mem_onchip_memory2_0+0xfbffed5c>
 4000d70:	0005883a 	mov	r2,zero
 4000d74:	18000726 	beq	r3,zero,4000d94 <__divsi3+0x58>
 4000d78:	0005883a 	mov	r2,zero
 4000d7c:	31400236 	bltu	r6,r5,4000d88 <__divsi3+0x4c>
 4000d80:	314dc83a 	sub	r6,r6,r5
 4000d84:	10c4b03a 	or	r2,r2,r3
 4000d88:	1806d07a 	srli	r3,r3,1
 4000d8c:	280ad07a 	srli	r5,r5,1
 4000d90:	183ffa1e 	bne	r3,zero,4000d7c <__alt_mem_onchip_memory2_0+0xfbffed7c>
 4000d94:	38000126 	beq	r7,zero,4000d9c <__divsi3+0x60>
 4000d98:	0085c83a 	sub	r2,zero,r2
 4000d9c:	f800283a 	ret
 4000da0:	014bc83a 	sub	r5,zero,r5
 4000da4:	39c0005c 	xori	r7,r7,1
 4000da8:	003fe706 	br	4000d48 <__alt_mem_onchip_memory2_0+0xfbffed48>
 4000dac:	0109c83a 	sub	r4,zero,r4
 4000db0:	01c00044 	movi	r7,1
 4000db4:	003fe306 	br	4000d44 <__alt_mem_onchip_memory2_0+0xfbffed44>
 4000db8:	00c00044 	movi	r3,1
 4000dbc:	003fee06 	br	4000d78 <__alt_mem_onchip_memory2_0+0xfbffed78>

04000dc0 <__modsi3>:
 4000dc0:	20001716 	blt	r4,zero,4000e20 <__modsi3+0x60>
 4000dc4:	000f883a 	mov	r7,zero
 4000dc8:	2005883a 	mov	r2,r4
 4000dcc:	28001216 	blt	r5,zero,4000e18 <__modsi3+0x58>
 4000dd0:	2900162e 	bgeu	r5,r4,4000e2c <__modsi3+0x6c>
 4000dd4:	01800804 	movi	r6,32
 4000dd8:	00c00044 	movi	r3,1
 4000ddc:	00000106 	br	4000de4 <__modsi3+0x24>
 4000de0:	30000a26 	beq	r6,zero,4000e0c <__modsi3+0x4c>
 4000de4:	294b883a 	add	r5,r5,r5
 4000de8:	31bfffc4 	addi	r6,r6,-1
 4000dec:	18c7883a 	add	r3,r3,r3
 4000df0:	293ffb36 	bltu	r5,r4,4000de0 <__alt_mem_onchip_memory2_0+0xfbffede0>
 4000df4:	18000526 	beq	r3,zero,4000e0c <__modsi3+0x4c>
 4000df8:	1806d07a 	srli	r3,r3,1
 4000dfc:	11400136 	bltu	r2,r5,4000e04 <__modsi3+0x44>
 4000e00:	1145c83a 	sub	r2,r2,r5
 4000e04:	280ad07a 	srli	r5,r5,1
 4000e08:	183ffb1e 	bne	r3,zero,4000df8 <__alt_mem_onchip_memory2_0+0xfbffedf8>
 4000e0c:	38000126 	beq	r7,zero,4000e14 <__modsi3+0x54>
 4000e10:	0085c83a 	sub	r2,zero,r2
 4000e14:	f800283a 	ret
 4000e18:	014bc83a 	sub	r5,zero,r5
 4000e1c:	003fec06 	br	4000dd0 <__alt_mem_onchip_memory2_0+0xfbffedd0>
 4000e20:	0109c83a 	sub	r4,zero,r4
 4000e24:	01c00044 	movi	r7,1
 4000e28:	003fe706 	br	4000dc8 <__alt_mem_onchip_memory2_0+0xfbffedc8>
 4000e2c:	00c00044 	movi	r3,1
 4000e30:	003ff106 	br	4000df8 <__alt_mem_onchip_memory2_0+0xfbffedf8>

04000e34 <__udivsi3>:
 4000e34:	200d883a 	mov	r6,r4
 4000e38:	2900152e 	bgeu	r5,r4,4000e90 <__udivsi3+0x5c>
 4000e3c:	28001416 	blt	r5,zero,4000e90 <__udivsi3+0x5c>
 4000e40:	00800804 	movi	r2,32
 4000e44:	00c00044 	movi	r3,1
 4000e48:	00000206 	br	4000e54 <__udivsi3+0x20>
 4000e4c:	10000e26 	beq	r2,zero,4000e88 <__udivsi3+0x54>
 4000e50:	28000516 	blt	r5,zero,4000e68 <__udivsi3+0x34>
 4000e54:	294b883a 	add	r5,r5,r5
 4000e58:	10bfffc4 	addi	r2,r2,-1
 4000e5c:	18c7883a 	add	r3,r3,r3
 4000e60:	293ffa36 	bltu	r5,r4,4000e4c <__alt_mem_onchip_memory2_0+0xfbffee4c>
 4000e64:	18000826 	beq	r3,zero,4000e88 <__udivsi3+0x54>
 4000e68:	0005883a 	mov	r2,zero
 4000e6c:	31400236 	bltu	r6,r5,4000e78 <__udivsi3+0x44>
 4000e70:	314dc83a 	sub	r6,r6,r5
 4000e74:	10c4b03a 	or	r2,r2,r3
 4000e78:	1806d07a 	srli	r3,r3,1
 4000e7c:	280ad07a 	srli	r5,r5,1
 4000e80:	183ffa1e 	bne	r3,zero,4000e6c <__alt_mem_onchip_memory2_0+0xfbffee6c>
 4000e84:	f800283a 	ret
 4000e88:	0005883a 	mov	r2,zero
 4000e8c:	f800283a 	ret
 4000e90:	00c00044 	movi	r3,1
 4000e94:	003ff406 	br	4000e68 <__alt_mem_onchip_memory2_0+0xfbffee68>

04000e98 <__umodsi3>:
 4000e98:	2005883a 	mov	r2,r4
 4000e9c:	2900122e 	bgeu	r5,r4,4000ee8 <__umodsi3+0x50>
 4000ea0:	28001116 	blt	r5,zero,4000ee8 <__umodsi3+0x50>
 4000ea4:	01800804 	movi	r6,32
 4000ea8:	00c00044 	movi	r3,1
 4000eac:	00000206 	br	4000eb8 <__umodsi3+0x20>
 4000eb0:	30000c26 	beq	r6,zero,4000ee4 <__umodsi3+0x4c>
 4000eb4:	28000516 	blt	r5,zero,4000ecc <__umodsi3+0x34>
 4000eb8:	294b883a 	add	r5,r5,r5
 4000ebc:	31bfffc4 	addi	r6,r6,-1
 4000ec0:	18c7883a 	add	r3,r3,r3
 4000ec4:	293ffa36 	bltu	r5,r4,4000eb0 <__alt_mem_onchip_memory2_0+0xfbffeeb0>
 4000ec8:	18000626 	beq	r3,zero,4000ee4 <__umodsi3+0x4c>
 4000ecc:	1806d07a 	srli	r3,r3,1
 4000ed0:	11400136 	bltu	r2,r5,4000ed8 <__umodsi3+0x40>
 4000ed4:	1145c83a 	sub	r2,r2,r5
 4000ed8:	280ad07a 	srli	r5,r5,1
 4000edc:	183ffb1e 	bne	r3,zero,4000ecc <__alt_mem_onchip_memory2_0+0xfbffeecc>
 4000ee0:	f800283a 	ret
 4000ee4:	f800283a 	ret
 4000ee8:	00c00044 	movi	r3,1
 4000eec:	003ff706 	br	4000ecc <__alt_mem_onchip_memory2_0+0xfbffeecc>

04000ef0 <__fixsfsi>:
 4000ef0:	200ad5fa 	srli	r5,r4,23
 4000ef4:	00c02034 	movhi	r3,128
 4000ef8:	18ffffc4 	addi	r3,r3,-1
 4000efc:	29403fcc 	andi	r5,r5,255
 4000f00:	00801f84 	movi	r2,126
 4000f04:	1906703a 	and	r3,r3,r4
 4000f08:	2008d7fa 	srli	r4,r4,31
 4000f0c:	11400e0e 	bge	r2,r5,4000f48 <__fixsfsi+0x58>
 4000f10:	00802744 	movi	r2,157
 4000f14:	11400816 	blt	r2,r5,4000f38 <__fixsfsi+0x48>
 4000f18:	00802544 	movi	r2,149
 4000f1c:	18c02034 	orhi	r3,r3,128
 4000f20:	11400b0e 	bge	r2,r5,4000f50 <__fixsfsi+0x60>
 4000f24:	28bfda84 	addi	r2,r5,-150
 4000f28:	1884983a 	sll	r2,r3,r2
 4000f2c:	20000726 	beq	r4,zero,4000f4c <__fixsfsi+0x5c>
 4000f30:	0085c83a 	sub	r2,zero,r2
 4000f34:	f800283a 	ret
 4000f38:	00a00034 	movhi	r2,32768
 4000f3c:	10bfffc4 	addi	r2,r2,-1
 4000f40:	2085883a 	add	r2,r4,r2
 4000f44:	f800283a 	ret
 4000f48:	0005883a 	mov	r2,zero
 4000f4c:	f800283a 	ret
 4000f50:	00802584 	movi	r2,150
 4000f54:	1145c83a 	sub	r2,r2,r5
 4000f58:	1884d83a 	srl	r2,r3,r2
 4000f5c:	003ff306 	br	4000f2c <__alt_mem_onchip_memory2_0+0xfbffef2c>

04000f60 <__floatsisf>:
 4000f60:	defffd04 	addi	sp,sp,-12
 4000f64:	dfc00215 	stw	ra,8(sp)
 4000f68:	dc400115 	stw	r17,4(sp)
 4000f6c:	dc000015 	stw	r16,0(sp)
 4000f70:	20003526 	beq	r4,zero,4001048 <__floatsisf+0xe8>
 4000f74:	2021883a 	mov	r16,r4
 4000f78:	2022d7fa 	srli	r17,r4,31
 4000f7c:	20003616 	blt	r4,zero,4001058 <__floatsisf+0xf8>
 4000f80:	8009883a 	mov	r4,r16
 4000f84:	40013e40 	call	40013e4 <__clzsi2>
 4000f88:	00c02784 	movi	r3,158
 4000f8c:	1887c83a 	sub	r3,r3,r2
 4000f90:	01002584 	movi	r4,150
 4000f94:	20c01416 	blt	r4,r3,4000fe8 <__floatsisf+0x88>
 4000f98:	20c9c83a 	sub	r4,r4,r3
 4000f9c:	8120983a 	sll	r16,r16,r4
 4000fa0:	00802034 	movhi	r2,128
 4000fa4:	10bfffc4 	addi	r2,r2,-1
 4000fa8:	8809883a 	mov	r4,r17
 4000fac:	80a0703a 	and	r16,r16,r2
 4000fb0:	18803fcc 	andi	r2,r3,255
 4000fb4:	100695fa 	slli	r3,r2,23
 4000fb8:	20803fcc 	andi	r2,r4,255
 4000fbc:	100897fa 	slli	r4,r2,31
 4000fc0:	00802034 	movhi	r2,128
 4000fc4:	10bfffc4 	addi	r2,r2,-1
 4000fc8:	8084703a 	and	r2,r16,r2
 4000fcc:	10c4b03a 	or	r2,r2,r3
 4000fd0:	1104b03a 	or	r2,r2,r4
 4000fd4:	dfc00217 	ldw	ra,8(sp)
 4000fd8:	dc400117 	ldw	r17,4(sp)
 4000fdc:	dc000017 	ldw	r16,0(sp)
 4000fe0:	dec00304 	addi	sp,sp,12
 4000fe4:	f800283a 	ret
 4000fe8:	01002644 	movi	r4,153
 4000fec:	20c01c16 	blt	r4,r3,4001060 <__floatsisf+0x100>
 4000ff0:	20c9c83a 	sub	r4,r4,r3
 4000ff4:	8120983a 	sll	r16,r16,r4
 4000ff8:	013f0034 	movhi	r4,64512
 4000ffc:	213fffc4 	addi	r4,r4,-1
 4001000:	814001cc 	andi	r5,r16,7
 4001004:	8108703a 	and	r4,r16,r4
 4001008:	28000426 	beq	r5,zero,400101c <__floatsisf+0xbc>
 400100c:	840003cc 	andi	r16,r16,15
 4001010:	01400104 	movi	r5,4
 4001014:	81400126 	beq	r16,r5,400101c <__floatsisf+0xbc>
 4001018:	2149883a 	add	r4,r4,r5
 400101c:	2141002c 	andhi	r5,r4,1024
 4001020:	28000526 	beq	r5,zero,4001038 <__floatsisf+0xd8>
 4001024:	00c027c4 	movi	r3,159
 4001028:	1887c83a 	sub	r3,r3,r2
 400102c:	00bf0034 	movhi	r2,64512
 4001030:	10bfffc4 	addi	r2,r2,-1
 4001034:	2088703a 	and	r4,r4,r2
 4001038:	202091ba 	slli	r16,r4,6
 400103c:	8809883a 	mov	r4,r17
 4001040:	8020d27a 	srli	r16,r16,9
 4001044:	003fda06 	br	4000fb0 <__alt_mem_onchip_memory2_0+0xfbffefb0>
 4001048:	0009883a 	mov	r4,zero
 400104c:	0007883a 	mov	r3,zero
 4001050:	0021883a 	mov	r16,zero
 4001054:	003fd606 	br	4000fb0 <__alt_mem_onchip_memory2_0+0xfbffefb0>
 4001058:	0121c83a 	sub	r16,zero,r4
 400105c:	003fc806 	br	4000f80 <__alt_mem_onchip_memory2_0+0xfbffef80>
 4001060:	01002e44 	movi	r4,185
 4001064:	20c9c83a 	sub	r4,r4,r3
 4001068:	01400144 	movi	r5,5
 400106c:	8108983a 	sll	r4,r16,r4
 4001070:	288bc83a 	sub	r5,r5,r2
 4001074:	8160d83a 	srl	r16,r16,r5
 4001078:	2008c03a 	cmpne	r4,r4,zero
 400107c:	8120b03a 	or	r16,r16,r4
 4001080:	003fdd06 	br	4000ff8 <__alt_mem_onchip_memory2_0+0xfbffeff8>

04001084 <__floatunsidf>:
 4001084:	defffe04 	addi	sp,sp,-8
 4001088:	dc000015 	stw	r16,0(sp)
 400108c:	dfc00115 	stw	ra,4(sp)
 4001090:	2021883a 	mov	r16,r4
 4001094:	20002226 	beq	r4,zero,4001120 <__floatunsidf+0x9c>
 4001098:	40013e40 	call	40013e4 <__clzsi2>
 400109c:	01010784 	movi	r4,1054
 40010a0:	2089c83a 	sub	r4,r4,r2
 40010a4:	01810cc4 	movi	r6,1075
 40010a8:	310dc83a 	sub	r6,r6,r4
 40010ac:	00c007c4 	movi	r3,31
 40010b0:	1980120e 	bge	r3,r6,40010fc <__floatunsidf+0x78>
 40010b4:	00c104c4 	movi	r3,1043
 40010b8:	1907c83a 	sub	r3,r3,r4
 40010bc:	80ca983a 	sll	r5,r16,r3
 40010c0:	00800434 	movhi	r2,16
 40010c4:	10bfffc4 	addi	r2,r2,-1
 40010c8:	2101ffcc 	andi	r4,r4,2047
 40010cc:	0021883a 	mov	r16,zero
 40010d0:	288a703a 	and	r5,r5,r2
 40010d4:	2008953a 	slli	r4,r4,20
 40010d8:	00c00434 	movhi	r3,16
 40010dc:	18ffffc4 	addi	r3,r3,-1
 40010e0:	28c6703a 	and	r3,r5,r3
 40010e4:	8005883a 	mov	r2,r16
 40010e8:	1906b03a 	or	r3,r3,r4
 40010ec:	dfc00117 	ldw	ra,4(sp)
 40010f0:	dc000017 	ldw	r16,0(sp)
 40010f4:	dec00204 	addi	sp,sp,8
 40010f8:	f800283a 	ret
 40010fc:	00c002c4 	movi	r3,11
 4001100:	188bc83a 	sub	r5,r3,r2
 4001104:	814ad83a 	srl	r5,r16,r5
 4001108:	00c00434 	movhi	r3,16
 400110c:	18ffffc4 	addi	r3,r3,-1
 4001110:	81a0983a 	sll	r16,r16,r6
 4001114:	2101ffcc 	andi	r4,r4,2047
 4001118:	28ca703a 	and	r5,r5,r3
 400111c:	003fed06 	br	40010d4 <__alt_mem_onchip_memory2_0+0xfbfff0d4>
 4001120:	0009883a 	mov	r4,zero
 4001124:	000b883a 	mov	r5,zero
 4001128:	003fea06 	br	40010d4 <__alt_mem_onchip_memory2_0+0xfbfff0d4>

0400112c <__extendsfdf2>:
 400112c:	200ad5fa 	srli	r5,r4,23
 4001130:	defffd04 	addi	sp,sp,-12
 4001134:	dc400115 	stw	r17,4(sp)
 4001138:	29403fcc 	andi	r5,r5,255
 400113c:	29800044 	addi	r6,r5,1
 4001140:	04402034 	movhi	r17,128
 4001144:	dc000015 	stw	r16,0(sp)
 4001148:	8c7fffc4 	addi	r17,r17,-1
 400114c:	dfc00215 	stw	ra,8(sp)
 4001150:	31803fcc 	andi	r6,r6,255
 4001154:	00800044 	movi	r2,1
 4001158:	8922703a 	and	r17,r17,r4
 400115c:	2020d7fa 	srli	r16,r4,31
 4001160:	1180110e 	bge	r2,r6,40011a8 <__extendsfdf2+0x7c>
 4001164:	880cd0fa 	srli	r6,r17,3
 4001168:	8822977a 	slli	r17,r17,29
 400116c:	2940e004 	addi	r5,r5,896
 4001170:	2941ffcc 	andi	r5,r5,2047
 4001174:	2804953a 	slli	r2,r5,20
 4001178:	01400434 	movhi	r5,16
 400117c:	800697fa 	slli	r3,r16,31
 4001180:	297fffc4 	addi	r5,r5,-1
 4001184:	314a703a 	and	r5,r6,r5
 4001188:	288ab03a 	or	r5,r5,r2
 400118c:	28c6b03a 	or	r3,r5,r3
 4001190:	8805883a 	mov	r2,r17
 4001194:	dfc00217 	ldw	ra,8(sp)
 4001198:	dc400117 	ldw	r17,4(sp)
 400119c:	dc000017 	ldw	r16,0(sp)
 40011a0:	dec00304 	addi	sp,sp,12
 40011a4:	f800283a 	ret
 40011a8:	2800111e 	bne	r5,zero,40011f0 <__extendsfdf2+0xc4>
 40011ac:	88001c26 	beq	r17,zero,4001220 <__extendsfdf2+0xf4>
 40011b0:	8809883a 	mov	r4,r17
 40011b4:	40013e40 	call	40013e4 <__clzsi2>
 40011b8:	00c00284 	movi	r3,10
 40011bc:	18801b16 	blt	r3,r2,400122c <__extendsfdf2+0x100>
 40011c0:	018002c4 	movi	r6,11
 40011c4:	308dc83a 	sub	r6,r6,r2
 40011c8:	11000544 	addi	r4,r2,21
 40011cc:	8986d83a 	srl	r3,r17,r6
 40011d0:	8922983a 	sll	r17,r17,r4
 40011d4:	0180e244 	movi	r6,905
 40011d8:	01400434 	movhi	r5,16
 40011dc:	3085c83a 	sub	r2,r6,r2
 40011e0:	297fffc4 	addi	r5,r5,-1
 40011e4:	194c703a 	and	r6,r3,r5
 40011e8:	1141ffcc 	andi	r5,r2,2047
 40011ec:	003fe006 	br	4001170 <__alt_mem_onchip_memory2_0+0xfbfff170>
 40011f0:	88000826 	beq	r17,zero,4001214 <__extendsfdf2+0xe8>
 40011f4:	880cd0fa 	srli	r6,r17,3
 40011f8:	00800434 	movhi	r2,16
 40011fc:	10bfffc4 	addi	r2,r2,-1
 4001200:	31800234 	orhi	r6,r6,8
 4001204:	8822977a 	slli	r17,r17,29
 4001208:	308c703a 	and	r6,r6,r2
 400120c:	0141ffc4 	movi	r5,2047
 4001210:	003fd706 	br	4001170 <__alt_mem_onchip_memory2_0+0xfbfff170>
 4001214:	0141ffc4 	movi	r5,2047
 4001218:	000d883a 	mov	r6,zero
 400121c:	003fd406 	br	4001170 <__alt_mem_onchip_memory2_0+0xfbfff170>
 4001220:	000b883a 	mov	r5,zero
 4001224:	000d883a 	mov	r6,zero
 4001228:	003fd106 	br	4001170 <__alt_mem_onchip_memory2_0+0xfbfff170>
 400122c:	11bffd44 	addi	r6,r2,-11
 4001230:	8986983a 	sll	r3,r17,r6
 4001234:	0023883a 	mov	r17,zero
 4001238:	003fe606 	br	40011d4 <__alt_mem_onchip_memory2_0+0xfbfff1d4>

0400123c <__truncdfsf2>:
 400123c:	2810d53a 	srli	r8,r5,20
 4001240:	01c00434 	movhi	r7,16
 4001244:	39ffffc4 	addi	r7,r7,-1
 4001248:	29ce703a 	and	r7,r5,r7
 400124c:	4201ffcc 	andi	r8,r8,2047
 4001250:	380e90fa 	slli	r7,r7,3
 4001254:	200cd77a 	srli	r6,r4,29
 4001258:	42400044 	addi	r9,r8,1
 400125c:	4a41ffcc 	andi	r9,r9,2047
 4001260:	00c00044 	movi	r3,1
 4001264:	280ad7fa 	srli	r5,r5,31
 4001268:	31ceb03a 	or	r7,r6,r7
 400126c:	200490fa 	slli	r2,r4,3
 4001270:	1a40230e 	bge	r3,r9,4001300 <__truncdfsf2+0xc4>
 4001274:	40ff2004 	addi	r3,r8,-896
 4001278:	01803f84 	movi	r6,254
 400127c:	30c01516 	blt	r6,r3,40012d4 <__truncdfsf2+0x98>
 4001280:	00c0380e 	bge	zero,r3,4001364 <__truncdfsf2+0x128>
 4001284:	200c91ba 	slli	r6,r4,6
 4001288:	380e90fa 	slli	r7,r7,3
 400128c:	1004d77a 	srli	r2,r2,29
 4001290:	300cc03a 	cmpne	r6,r6,zero
 4001294:	31ccb03a 	or	r6,r6,r7
 4001298:	308cb03a 	or	r6,r6,r2
 400129c:	308001cc 	andi	r2,r6,7
 40012a0:	10000426 	beq	r2,zero,40012b4 <__truncdfsf2+0x78>
 40012a4:	308003cc 	andi	r2,r6,15
 40012a8:	01000104 	movi	r4,4
 40012ac:	11000126 	beq	r2,r4,40012b4 <__truncdfsf2+0x78>
 40012b0:	31800104 	addi	r6,r6,4
 40012b4:	3081002c 	andhi	r2,r6,1024
 40012b8:	10001626 	beq	r2,zero,4001314 <__truncdfsf2+0xd8>
 40012bc:	18c00044 	addi	r3,r3,1
 40012c0:	00803fc4 	movi	r2,255
 40012c4:	18800326 	beq	r3,r2,40012d4 <__truncdfsf2+0x98>
 40012c8:	300c91ba 	slli	r6,r6,6
 40012cc:	300cd27a 	srli	r6,r6,9
 40012d0:	00000206 	br	40012dc <__truncdfsf2+0xa0>
 40012d4:	00ffffc4 	movi	r3,-1
 40012d8:	000d883a 	mov	r6,zero
 40012dc:	18c03fcc 	andi	r3,r3,255
 40012e0:	180895fa 	slli	r4,r3,23
 40012e4:	00c02034 	movhi	r3,128
 40012e8:	280a97fa 	slli	r5,r5,31
 40012ec:	18ffffc4 	addi	r3,r3,-1
 40012f0:	30c6703a 	and	r3,r6,r3
 40012f4:	1906b03a 	or	r3,r3,r4
 40012f8:	1944b03a 	or	r2,r3,r5
 40012fc:	f800283a 	ret
 4001300:	40000b1e 	bne	r8,zero,4001330 <__truncdfsf2+0xf4>
 4001304:	388cb03a 	or	r6,r7,r2
 4001308:	0007883a 	mov	r3,zero
 400130c:	30000426 	beq	r6,zero,4001320 <__truncdfsf2+0xe4>
 4001310:	01800144 	movi	r6,5
 4001314:	00803fc4 	movi	r2,255
 4001318:	300cd0fa 	srli	r6,r6,3
 400131c:	18800a26 	beq	r3,r2,4001348 <__truncdfsf2+0x10c>
 4001320:	00802034 	movhi	r2,128
 4001324:	10bfffc4 	addi	r2,r2,-1
 4001328:	308c703a 	and	r6,r6,r2
 400132c:	003feb06 	br	40012dc <__alt_mem_onchip_memory2_0+0xfbfff2dc>
 4001330:	3888b03a 	or	r4,r7,r2
 4001334:	203fe726 	beq	r4,zero,40012d4 <__alt_mem_onchip_memory2_0+0xfbfff2d4>
 4001338:	380c90fa 	slli	r6,r7,3
 400133c:	00c03fc4 	movi	r3,255
 4001340:	31808034 	orhi	r6,r6,512
 4001344:	003fd506 	br	400129c <__alt_mem_onchip_memory2_0+0xfbfff29c>
 4001348:	303fe226 	beq	r6,zero,40012d4 <__alt_mem_onchip_memory2_0+0xfbfff2d4>
 400134c:	00802034 	movhi	r2,128
 4001350:	31801034 	orhi	r6,r6,64
 4001354:	10bfffc4 	addi	r2,r2,-1
 4001358:	00ffffc4 	movi	r3,-1
 400135c:	308c703a 	and	r6,r6,r2
 4001360:	003fde06 	br	40012dc <__alt_mem_onchip_memory2_0+0xfbfff2dc>
 4001364:	013ffa44 	movi	r4,-23
 4001368:	19000e16 	blt	r3,r4,40013a4 <__truncdfsf2+0x168>
 400136c:	01000784 	movi	r4,30
 4001370:	20c9c83a 	sub	r4,r4,r3
 4001374:	018007c4 	movi	r6,31
 4001378:	39c02034 	orhi	r7,r7,128
 400137c:	31000b16 	blt	r6,r4,40013ac <__truncdfsf2+0x170>
 4001380:	423f2084 	addi	r8,r8,-894
 4001384:	120c983a 	sll	r6,r2,r8
 4001388:	3a0e983a 	sll	r7,r7,r8
 400138c:	1104d83a 	srl	r2,r2,r4
 4001390:	300cc03a 	cmpne	r6,r6,zero
 4001394:	31ceb03a 	or	r7,r6,r7
 4001398:	388cb03a 	or	r6,r7,r2
 400139c:	0007883a 	mov	r3,zero
 40013a0:	003fbe06 	br	400129c <__alt_mem_onchip_memory2_0+0xfbfff29c>
 40013a4:	0007883a 	mov	r3,zero
 40013a8:	003fd906 	br	4001310 <__alt_mem_onchip_memory2_0+0xfbfff310>
 40013ac:	01bfff84 	movi	r6,-2
 40013b0:	30cdc83a 	sub	r6,r6,r3
 40013b4:	00c00804 	movi	r3,32
 40013b8:	398cd83a 	srl	r6,r7,r6
 40013bc:	20c00726 	beq	r4,r3,40013dc <__truncdfsf2+0x1a0>
 40013c0:	423f2884 	addi	r8,r8,-862
 40013c4:	3a0e983a 	sll	r7,r7,r8
 40013c8:	3884b03a 	or	r2,r7,r2
 40013cc:	1004c03a 	cmpne	r2,r2,zero
 40013d0:	118cb03a 	or	r6,r2,r6
 40013d4:	0007883a 	mov	r3,zero
 40013d8:	003fb006 	br	400129c <__alt_mem_onchip_memory2_0+0xfbfff29c>
 40013dc:	000f883a 	mov	r7,zero
 40013e0:	003ff906 	br	40013c8 <__alt_mem_onchip_memory2_0+0xfbfff3c8>

040013e4 <__clzsi2>:
 40013e4:	00bfffd4 	movui	r2,65535
 40013e8:	11000536 	bltu	r2,r4,4001400 <__clzsi2+0x1c>
 40013ec:	00803fc4 	movi	r2,255
 40013f0:	11000f36 	bltu	r2,r4,4001430 <__clzsi2+0x4c>
 40013f4:	00800804 	movi	r2,32
 40013f8:	0007883a 	mov	r3,zero
 40013fc:	00000506 	br	4001414 <__clzsi2+0x30>
 4001400:	00804034 	movhi	r2,256
 4001404:	10bfffc4 	addi	r2,r2,-1
 4001408:	11000c2e 	bgeu	r2,r4,400143c <__clzsi2+0x58>
 400140c:	00800204 	movi	r2,8
 4001410:	00c00604 	movi	r3,24
 4001414:	20c8d83a 	srl	r4,r4,r3
 4001418:	00c100b4 	movhi	r3,1026
 400141c:	18f28104 	addi	r3,r3,-13820
 4001420:	1909883a 	add	r4,r3,r4
 4001424:	20c00003 	ldbu	r3,0(r4)
 4001428:	10c5c83a 	sub	r2,r2,r3
 400142c:	f800283a 	ret
 4001430:	00800604 	movi	r2,24
 4001434:	00c00204 	movi	r3,8
 4001438:	003ff606 	br	4001414 <__alt_mem_onchip_memory2_0+0xfbfff414>
 400143c:	00800404 	movi	r2,16
 4001440:	1007883a 	mov	r3,r2
 4001444:	003ff306 	br	4001414 <__alt_mem_onchip_memory2_0+0xfbfff414>

04001448 <_printf_r>:
 4001448:	defffd04 	addi	sp,sp,-12
 400144c:	2805883a 	mov	r2,r5
 4001450:	dfc00015 	stw	ra,0(sp)
 4001454:	d9800115 	stw	r6,4(sp)
 4001458:	d9c00215 	stw	r7,8(sp)
 400145c:	21400217 	ldw	r5,8(r4)
 4001460:	d9c00104 	addi	r7,sp,4
 4001464:	100d883a 	mov	r6,r2
 4001468:	40039380 	call	4003938 <___vfprintf_internal_r>
 400146c:	dfc00017 	ldw	ra,0(sp)
 4001470:	dec00304 	addi	sp,sp,12
 4001474:	f800283a 	ret

04001478 <printf>:
 4001478:	defffc04 	addi	sp,sp,-16
 400147c:	dfc00015 	stw	ra,0(sp)
 4001480:	d9400115 	stw	r5,4(sp)
 4001484:	d9800215 	stw	r6,8(sp)
 4001488:	d9c00315 	stw	r7,12(sp)
 400148c:	008100b4 	movhi	r2,1026
 4001490:	10ba5404 	addi	r2,r2,-5808
 4001494:	10800017 	ldw	r2,0(r2)
 4001498:	200b883a 	mov	r5,r4
 400149c:	d9800104 	addi	r6,sp,4
 40014a0:	11000217 	ldw	r4,8(r2)
 40014a4:	4005b300 	call	4005b30 <__vfprintf_internal>
 40014a8:	dfc00017 	ldw	ra,0(sp)
 40014ac:	dec00404 	addi	sp,sp,16
 40014b0:	f800283a 	ret

040014b4 <_puts_r>:
 40014b4:	defff604 	addi	sp,sp,-40
 40014b8:	dc000715 	stw	r16,28(sp)
 40014bc:	2021883a 	mov	r16,r4
 40014c0:	2809883a 	mov	r4,r5
 40014c4:	dc400815 	stw	r17,32(sp)
 40014c8:	dfc00915 	stw	ra,36(sp)
 40014cc:	2823883a 	mov	r17,r5
 40014d0:	40016c80 	call	40016c8 <strlen>
 40014d4:	10c00044 	addi	r3,r2,1
 40014d8:	d8800115 	stw	r2,4(sp)
 40014dc:	008100b4 	movhi	r2,1026
 40014e0:	10b2c104 	addi	r2,r2,-13564
 40014e4:	d8800215 	stw	r2,8(sp)
 40014e8:	00800044 	movi	r2,1
 40014ec:	d8800315 	stw	r2,12(sp)
 40014f0:	00800084 	movi	r2,2
 40014f4:	dc400015 	stw	r17,0(sp)
 40014f8:	d8c00615 	stw	r3,24(sp)
 40014fc:	dec00415 	stw	sp,16(sp)
 4001500:	d8800515 	stw	r2,20(sp)
 4001504:	80000226 	beq	r16,zero,4001510 <_puts_r+0x5c>
 4001508:	80800e17 	ldw	r2,56(r16)
 400150c:	10001426 	beq	r2,zero,4001560 <_puts_r+0xac>
 4001510:	81400217 	ldw	r5,8(r16)
 4001514:	2880030b 	ldhu	r2,12(r5)
 4001518:	10c8000c 	andi	r3,r2,8192
 400151c:	1800061e 	bne	r3,zero,4001538 <_puts_r+0x84>
 4001520:	29001917 	ldw	r4,100(r5)
 4001524:	00f7ffc4 	movi	r3,-8193
 4001528:	10880014 	ori	r2,r2,8192
 400152c:	20c6703a 	and	r3,r4,r3
 4001530:	2880030d 	sth	r2,12(r5)
 4001534:	28c01915 	stw	r3,100(r5)
 4001538:	d9800404 	addi	r6,sp,16
 400153c:	8009883a 	mov	r4,r16
 4001540:	40080600 	call	4008060 <__sfvwrite_r>
 4001544:	1000091e 	bne	r2,zero,400156c <_puts_r+0xb8>
 4001548:	00800284 	movi	r2,10
 400154c:	dfc00917 	ldw	ra,36(sp)
 4001550:	dc400817 	ldw	r17,32(sp)
 4001554:	dc000717 	ldw	r16,28(sp)
 4001558:	dec00a04 	addi	sp,sp,40
 400155c:	f800283a 	ret
 4001560:	8009883a 	mov	r4,r16
 4001564:	4007bdc0 	call	4007bdc <__sinit>
 4001568:	003fe906 	br	4001510 <__alt_mem_onchip_memory2_0+0xfbfff510>
 400156c:	00bfffc4 	movi	r2,-1
 4001570:	003ff606 	br	400154c <__alt_mem_onchip_memory2_0+0xfbfff54c>

04001574 <puts>:
 4001574:	008100b4 	movhi	r2,1026
 4001578:	10ba5404 	addi	r2,r2,-5808
 400157c:	200b883a 	mov	r5,r4
 4001580:	11000017 	ldw	r4,0(r2)
 4001584:	40014b41 	jmpi	40014b4 <_puts_r>

04001588 <srand>:
 4001588:	008100b4 	movhi	r2,1026
 400158c:	10ba5404 	addi	r2,r2,-5808
 4001590:	10800017 	ldw	r2,0(r2)
 4001594:	11002915 	stw	r4,164(r2)
 4001598:	10002a15 	stw	zero,168(r2)
 400159c:	f800283a 	ret

040015a0 <rand>:
 40015a0:	008100b4 	movhi	r2,1026
 40015a4:	defffe04 	addi	sp,sp,-8
 40015a8:	10ba5404 	addi	r2,r2,-5808
 40015ac:	dc000015 	stw	r16,0(sp)
 40015b0:	14000017 	ldw	r16,0(r2)
 40015b4:	dfc00115 	stw	ra,4(sp)
 40015b8:	01932574 	movhi	r6,19605
 40015bc:	81002917 	ldw	r4,164(r16)
 40015c0:	81402a17 	ldw	r5,168(r16)
 40015c4:	01d614b4 	movhi	r7,22610
 40015c8:	319fcb44 	addi	r6,r6,32557
 40015cc:	39fd0b44 	addi	r7,r7,-3027
 40015d0:	400e1c00 	call	400e1c0 <__muldi3>
 40015d4:	11000044 	addi	r4,r2,1
 40015d8:	2085803a 	cmpltu	r2,r4,r2
 40015dc:	10c7883a 	add	r3,r2,r3
 40015e0:	00a00034 	movhi	r2,32768
 40015e4:	10bfffc4 	addi	r2,r2,-1
 40015e8:	1884703a 	and	r2,r3,r2
 40015ec:	81002915 	stw	r4,164(r16)
 40015f0:	80c02a15 	stw	r3,168(r16)
 40015f4:	dfc00117 	ldw	ra,4(sp)
 40015f8:	dc000017 	ldw	r16,0(sp)
 40015fc:	dec00204 	addi	sp,sp,8
 4001600:	f800283a 	ret

04001604 <_sprintf_r>:
 4001604:	deffe404 	addi	sp,sp,-112
 4001608:	2807883a 	mov	r3,r5
 400160c:	dfc01a15 	stw	ra,104(sp)
 4001610:	d9c01b15 	stw	r7,108(sp)
 4001614:	00a00034 	movhi	r2,32768
 4001618:	10bfffc4 	addi	r2,r2,-1
 400161c:	02008204 	movi	r8,520
 4001620:	d8800215 	stw	r2,8(sp)
 4001624:	d8800515 	stw	r2,20(sp)
 4001628:	d9c01b04 	addi	r7,sp,108
 400162c:	d80b883a 	mov	r5,sp
 4001630:	00bfffc4 	movi	r2,-1
 4001634:	d8c00015 	stw	r3,0(sp)
 4001638:	d8c00415 	stw	r3,16(sp)
 400163c:	da00030d 	sth	r8,12(sp)
 4001640:	d880038d 	sth	r2,14(sp)
 4001644:	40017600 	call	4001760 <___svfprintf_internal_r>
 4001648:	d8c00017 	ldw	r3,0(sp)
 400164c:	18000005 	stb	zero,0(r3)
 4001650:	dfc01a17 	ldw	ra,104(sp)
 4001654:	dec01c04 	addi	sp,sp,112
 4001658:	f800283a 	ret

0400165c <sprintf>:
 400165c:	deffe304 	addi	sp,sp,-116
 4001660:	2007883a 	mov	r3,r4
 4001664:	dfc01a15 	stw	ra,104(sp)
 4001668:	d9801b15 	stw	r6,108(sp)
 400166c:	d9c01c15 	stw	r7,112(sp)
 4001670:	010100b4 	movhi	r4,1026
 4001674:	213a5404 	addi	r4,r4,-5808
 4001678:	21000017 	ldw	r4,0(r4)
 400167c:	00a00034 	movhi	r2,32768
 4001680:	10bfffc4 	addi	r2,r2,-1
 4001684:	280d883a 	mov	r6,r5
 4001688:	02008204 	movi	r8,520
 400168c:	d8800215 	stw	r2,8(sp)
 4001690:	d8800515 	stw	r2,20(sp)
 4001694:	d9c01b04 	addi	r7,sp,108
 4001698:	d80b883a 	mov	r5,sp
 400169c:	00bfffc4 	movi	r2,-1
 40016a0:	d8c00015 	stw	r3,0(sp)
 40016a4:	d8c00415 	stw	r3,16(sp)
 40016a8:	da00030d 	sth	r8,12(sp)
 40016ac:	d880038d 	sth	r2,14(sp)
 40016b0:	40017600 	call	4001760 <___svfprintf_internal_r>
 40016b4:	d8c00017 	ldw	r3,0(sp)
 40016b8:	18000005 	stb	zero,0(r3)
 40016bc:	dfc01a17 	ldw	ra,104(sp)
 40016c0:	dec01d04 	addi	sp,sp,116
 40016c4:	f800283a 	ret

040016c8 <strlen>:
 40016c8:	208000cc 	andi	r2,r4,3
 40016cc:	10002026 	beq	r2,zero,4001750 <strlen+0x88>
 40016d0:	20800007 	ldb	r2,0(r4)
 40016d4:	10002026 	beq	r2,zero,4001758 <strlen+0x90>
 40016d8:	2005883a 	mov	r2,r4
 40016dc:	00000206 	br	40016e8 <strlen+0x20>
 40016e0:	10c00007 	ldb	r3,0(r2)
 40016e4:	18001826 	beq	r3,zero,4001748 <strlen+0x80>
 40016e8:	10800044 	addi	r2,r2,1
 40016ec:	10c000cc 	andi	r3,r2,3
 40016f0:	183ffb1e 	bne	r3,zero,40016e0 <__alt_mem_onchip_memory2_0+0xfbfff6e0>
 40016f4:	10c00017 	ldw	r3,0(r2)
 40016f8:	01ffbff4 	movhi	r7,65279
 40016fc:	39ffbfc4 	addi	r7,r7,-257
 4001700:	00ca303a 	nor	r5,zero,r3
 4001704:	01a02074 	movhi	r6,32897
 4001708:	19c7883a 	add	r3,r3,r7
 400170c:	31a02004 	addi	r6,r6,-32640
 4001710:	1946703a 	and	r3,r3,r5
 4001714:	1986703a 	and	r3,r3,r6
 4001718:	1800091e 	bne	r3,zero,4001740 <strlen+0x78>
 400171c:	10800104 	addi	r2,r2,4
 4001720:	10c00017 	ldw	r3,0(r2)
 4001724:	19cb883a 	add	r5,r3,r7
 4001728:	00c6303a 	nor	r3,zero,r3
 400172c:	28c6703a 	and	r3,r5,r3
 4001730:	1986703a 	and	r3,r3,r6
 4001734:	183ff926 	beq	r3,zero,400171c <__alt_mem_onchip_memory2_0+0xfbfff71c>
 4001738:	00000106 	br	4001740 <strlen+0x78>
 400173c:	10800044 	addi	r2,r2,1
 4001740:	10c00007 	ldb	r3,0(r2)
 4001744:	183ffd1e 	bne	r3,zero,400173c <__alt_mem_onchip_memory2_0+0xfbfff73c>
 4001748:	1105c83a 	sub	r2,r2,r4
 400174c:	f800283a 	ret
 4001750:	2005883a 	mov	r2,r4
 4001754:	003fe706 	br	40016f4 <__alt_mem_onchip_memory2_0+0xfbfff6f4>
 4001758:	0005883a 	mov	r2,zero
 400175c:	f800283a 	ret

04001760 <___svfprintf_internal_r>:
 4001760:	deffb704 	addi	sp,sp,-292
 4001764:	dfc04815 	stw	ra,288(sp)
 4001768:	ddc04615 	stw	r23,280(sp)
 400176c:	d9402c15 	stw	r5,176(sp)
 4001770:	d9003915 	stw	r4,228(sp)
 4001774:	302f883a 	mov	r23,r6
 4001778:	d9c02d15 	stw	r7,180(sp)
 400177c:	df004715 	stw	fp,284(sp)
 4001780:	dd804515 	stw	r22,276(sp)
 4001784:	dd404415 	stw	r21,272(sp)
 4001788:	dd004315 	stw	r20,268(sp)
 400178c:	dcc04215 	stw	r19,264(sp)
 4001790:	dc804115 	stw	r18,260(sp)
 4001794:	dc404015 	stw	r17,256(sp)
 4001798:	dc003f15 	stw	r16,252(sp)
 400179c:	40087500 	call	4008750 <_localeconv_r>
 40017a0:	10800017 	ldw	r2,0(r2)
 40017a4:	1009883a 	mov	r4,r2
 40017a8:	d8803415 	stw	r2,208(sp)
 40017ac:	40016c80 	call	40016c8 <strlen>
 40017b0:	d8c02c17 	ldw	r3,176(sp)
 40017b4:	d8803815 	stw	r2,224(sp)
 40017b8:	1880030b 	ldhu	r2,12(r3)
 40017bc:	1080200c 	andi	r2,r2,128
 40017c0:	10000226 	beq	r2,zero,40017cc <___svfprintf_internal_r+0x6c>
 40017c4:	18800417 	ldw	r2,16(r3)
 40017c8:	10067f26 	beq	r2,zero,40031c8 <___svfprintf_internal_r+0x1a68>
 40017cc:	dcc03917 	ldw	r19,228(sp)
 40017d0:	d8c00404 	addi	r3,sp,16
 40017d4:	054100b4 	movhi	r21,1026
 40017d8:	d9001e04 	addi	r4,sp,120
 40017dc:	ad72d284 	addi	r21,r21,-13494
 40017e0:	d8c01e15 	stw	r3,120(sp)
 40017e4:	d8002015 	stw	zero,128(sp)
 40017e8:	d8001f15 	stw	zero,124(sp)
 40017ec:	d8003315 	stw	zero,204(sp)
 40017f0:	d8003615 	stw	zero,216(sp)
 40017f4:	d8003715 	stw	zero,220(sp)
 40017f8:	1811883a 	mov	r8,r3
 40017fc:	d8003a15 	stw	zero,232(sp)
 4001800:	d8003b15 	stw	zero,236(sp)
 4001804:	d8002f15 	stw	zero,188(sp)
 4001808:	d9002815 	stw	r4,160(sp)
 400180c:	b8800007 	ldb	r2,0(r23)
 4001810:	10026726 	beq	r2,zero,40021b0 <___svfprintf_internal_r+0xa50>
 4001814:	00c00944 	movi	r3,37
 4001818:	b821883a 	mov	r16,r23
 400181c:	10c0021e 	bne	r2,r3,4001828 <___svfprintf_internal_r+0xc8>
 4001820:	00001406 	br	4001874 <___svfprintf_internal_r+0x114>
 4001824:	10c00326 	beq	r2,r3,4001834 <___svfprintf_internal_r+0xd4>
 4001828:	84000044 	addi	r16,r16,1
 400182c:	80800007 	ldb	r2,0(r16)
 4001830:	103ffc1e 	bne	r2,zero,4001824 <__alt_mem_onchip_memory2_0+0xfbfff824>
 4001834:	85e3c83a 	sub	r17,r16,r23
 4001838:	88000e26 	beq	r17,zero,4001874 <___svfprintf_internal_r+0x114>
 400183c:	d8c02017 	ldw	r3,128(sp)
 4001840:	d8801f17 	ldw	r2,124(sp)
 4001844:	45c00015 	stw	r23,0(r8)
 4001848:	1c47883a 	add	r3,r3,r17
 400184c:	10800044 	addi	r2,r2,1
 4001850:	d8c02015 	stw	r3,128(sp)
 4001854:	44400115 	stw	r17,4(r8)
 4001858:	d8801f15 	stw	r2,124(sp)
 400185c:	00c001c4 	movi	r3,7
 4001860:	18809716 	blt	r3,r2,4001ac0 <___svfprintf_internal_r+0x360>
 4001864:	42000204 	addi	r8,r8,8
 4001868:	d9402f17 	ldw	r5,188(sp)
 400186c:	2c4b883a 	add	r5,r5,r17
 4001870:	d9402f15 	stw	r5,188(sp)
 4001874:	80800007 	ldb	r2,0(r16)
 4001878:	10009826 	beq	r2,zero,4001adc <___svfprintf_internal_r+0x37c>
 400187c:	84400047 	ldb	r17,1(r16)
 4001880:	00bfffc4 	movi	r2,-1
 4001884:	85c00044 	addi	r23,r16,1
 4001888:	d8002785 	stb	zero,158(sp)
 400188c:	0007883a 	mov	r3,zero
 4001890:	000f883a 	mov	r7,zero
 4001894:	d8802915 	stw	r2,164(sp)
 4001898:	d8003115 	stw	zero,196(sp)
 400189c:	0025883a 	mov	r18,zero
 40018a0:	01401604 	movi	r5,88
 40018a4:	01800244 	movi	r6,9
 40018a8:	02800a84 	movi	r10,42
 40018ac:	02401b04 	movi	r9,108
 40018b0:	bdc00044 	addi	r23,r23,1
 40018b4:	88bff804 	addi	r2,r17,-32
 40018b8:	2882f036 	bltu	r5,r2,400247c <___svfprintf_internal_r+0xd1c>
 40018bc:	100490ba 	slli	r2,r2,2
 40018c0:	01010034 	movhi	r4,1024
 40018c4:	21063504 	addi	r4,r4,6356
 40018c8:	1105883a 	add	r2,r2,r4
 40018cc:	10800017 	ldw	r2,0(r2)
 40018d0:	1000683a 	jmp	r2
 40018d4:	040023e4 	muli	r16,zero,143
 40018d8:	0400247c 	xorhi	r16,zero,145
 40018dc:	0400247c 	xorhi	r16,zero,145
 40018e0:	040023d8 	cmpnei	r16,zero,143
 40018e4:	0400247c 	xorhi	r16,zero,145
 40018e8:	0400247c 	xorhi	r16,zero,145
 40018ec:	0400247c 	xorhi	r16,zero,145
 40018f0:	0400247c 	xorhi	r16,zero,145
 40018f4:	0400247c 	xorhi	r16,zero,145
 40018f8:	0400247c 	xorhi	r16,zero,145
 40018fc:	04001b38 	rdprs	r16,zero,108
 4001900:	04002314 	movui	r16,140
 4001904:	0400247c 	xorhi	r16,zero,145
 4001908:	04001a48 	cmpgei	r16,zero,105
 400190c:	04001b60 	cmpeqi	r16,zero,109
 4001910:	0400247c 	xorhi	r16,zero,145
 4001914:	04001bd4 	movui	r16,111
 4001918:	04001ba0 	cmpeqi	r16,zero,110
 400191c:	04001ba0 	cmpeqi	r16,zero,110
 4001920:	04001ba0 	cmpeqi	r16,zero,110
 4001924:	04001ba0 	cmpeqi	r16,zero,110
 4001928:	04001ba0 	cmpeqi	r16,zero,110
 400192c:	04001ba0 	cmpeqi	r16,zero,110
 4001930:	04001ba0 	cmpeqi	r16,zero,110
 4001934:	04001ba0 	cmpeqi	r16,zero,110
 4001938:	04001ba0 	cmpeqi	r16,zero,110
 400193c:	0400247c 	xorhi	r16,zero,145
 4001940:	0400247c 	xorhi	r16,zero,145
 4001944:	0400247c 	xorhi	r16,zero,145
 4001948:	0400247c 	xorhi	r16,zero,145
 400194c:	0400247c 	xorhi	r16,zero,145
 4001950:	0400247c 	xorhi	r16,zero,145
 4001954:	0400247c 	xorhi	r16,zero,145
 4001958:	0400247c 	xorhi	r16,zero,145
 400195c:	0400247c 	xorhi	r16,zero,145
 4001960:	0400247c 	xorhi	r16,zero,145
 4001964:	04001c8c 	andi	r16,zero,114
 4001968:	04001be0 	cmpeqi	r16,zero,111
 400196c:	0400247c 	xorhi	r16,zero,145
 4001970:	04001be0 	cmpeqi	r16,zero,111
 4001974:	0400247c 	xorhi	r16,zero,145
 4001978:	0400247c 	xorhi	r16,zero,145
 400197c:	0400247c 	xorhi	r16,zero,145
 4001980:	0400247c 	xorhi	r16,zero,145
 4001984:	04001c80 	call	4001c8 <OSCtxSw_SWITCH_PC+0x400188>
 4001988:	0400247c 	xorhi	r16,zero,145
 400198c:	0400247c 	xorhi	r16,zero,145
 4001990:	04001d48 	cmpgei	r16,zero,117
 4001994:	0400247c 	xorhi	r16,zero,145
 4001998:	0400247c 	xorhi	r16,zero,145
 400199c:	0400247c 	xorhi	r16,zero,145
 40019a0:	0400247c 	xorhi	r16,zero,145
 40019a4:	0400247c 	xorhi	r16,zero,145
 40019a8:	040021b8 	rdprs	r16,zero,134
 40019ac:	0400247c 	xorhi	r16,zero,145
 40019b0:	0400247c 	xorhi	r16,zero,145
 40019b4:	04002218 	cmpnei	r16,zero,136
 40019b8:	0400247c 	xorhi	r16,zero,145
 40019bc:	0400247c 	xorhi	r16,zero,145
 40019c0:	0400247c 	xorhi	r16,zero,145
 40019c4:	0400247c 	xorhi	r16,zero,145
 40019c8:	0400247c 	xorhi	r16,zero,145
 40019cc:	0400247c 	xorhi	r16,zero,145
 40019d0:	0400247c 	xorhi	r16,zero,145
 40019d4:	0400247c 	xorhi	r16,zero,145
 40019d8:	0400247c 	xorhi	r16,zero,145
 40019dc:	0400247c 	xorhi	r16,zero,145
 40019e0:	040022c8 	cmpgei	r16,zero,139
 40019e4:	04002404 	movi	r16,144
 40019e8:	04001be0 	cmpeqi	r16,zero,111
 40019ec:	04001be0 	cmpeqi	r16,zero,111
 40019f0:	04001be0 	cmpeqi	r16,zero,111
 40019f4:	04002458 	cmpnei	r16,zero,145
 40019f8:	04002404 	movi	r16,144
 40019fc:	0400247c 	xorhi	r16,zero,145
 4001a00:	0400247c 	xorhi	r16,zero,145
 4001a04:	04002414 	movui	r16,144
 4001a08:	0400247c 	xorhi	r16,zero,145
 4001a0c:	04002424 	muli	r16,zero,144
 4001a10:	04002304 	movi	r16,140
 4001a14:	04001a54 	movui	r16,105
 4001a18:	04002324 	muli	r16,zero,140
 4001a1c:	0400247c 	xorhi	r16,zero,145
 4001a20:	04002330 	cmpltui	r16,zero,140
 4001a24:	0400247c 	xorhi	r16,zero,145
 4001a28:	0400238c 	andi	r16,zero,142
 4001a2c:	0400247c 	xorhi	r16,zero,145
 4001a30:	0400247c 	xorhi	r16,zero,145
 4001a34:	0400239c 	xori	r16,zero,142
 4001a38:	d9003117 	ldw	r4,196(sp)
 4001a3c:	d8802d15 	stw	r2,180(sp)
 4001a40:	0109c83a 	sub	r4,zero,r4
 4001a44:	d9003115 	stw	r4,196(sp)
 4001a48:	94800114 	ori	r18,r18,4
 4001a4c:	bc400007 	ldb	r17,0(r23)
 4001a50:	003f9706 	br	40018b0 <__alt_mem_onchip_memory2_0+0xfbfff8b0>
 4001a54:	00800c04 	movi	r2,48
 4001a58:	d9002d17 	ldw	r4,180(sp)
 4001a5c:	d9402917 	ldw	r5,164(sp)
 4001a60:	d8802705 	stb	r2,156(sp)
 4001a64:	00801e04 	movi	r2,120
 4001a68:	d8802745 	stb	r2,157(sp)
 4001a6c:	d8002785 	stb	zero,158(sp)
 4001a70:	20c00104 	addi	r3,r4,4
 4001a74:	25000017 	ldw	r20,0(r4)
 4001a78:	002d883a 	mov	r22,zero
 4001a7c:	90800094 	ori	r2,r18,2
 4001a80:	28028616 	blt	r5,zero,400249c <___svfprintf_internal_r+0xd3c>
 4001a84:	00bfdfc4 	movi	r2,-129
 4001a88:	90a4703a 	and	r18,r18,r2
 4001a8c:	d8c02d15 	stw	r3,180(sp)
 4001a90:	94800094 	ori	r18,r18,2
 4001a94:	a002731e 	bne	r20,zero,4002464 <___svfprintf_internal_r+0xd04>
 4001a98:	008100b4 	movhi	r2,1026
 4001a9c:	10b2cb04 	addi	r2,r2,-13524
 4001aa0:	d8803a15 	stw	r2,232(sp)
 4001aa4:	04401e04 	movi	r17,120
 4001aa8:	d8c02917 	ldw	r3,164(sp)
 4001aac:	0039883a 	mov	fp,zero
 4001ab0:	1801d526 	beq	r3,zero,4002208 <___svfprintf_internal_r+0xaa8>
 4001ab4:	0029883a 	mov	r20,zero
 4001ab8:	002d883a 	mov	r22,zero
 4001abc:	0001f106 	br	4002284 <___svfprintf_internal_r+0xb24>
 4001ac0:	d9402c17 	ldw	r5,176(sp)
 4001ac4:	d9801e04 	addi	r6,sp,120
 4001ac8:	9809883a 	mov	r4,r19
 4001acc:	400ae380 	call	400ae38 <__ssprint_r>
 4001ad0:	1000081e 	bne	r2,zero,4001af4 <___svfprintf_internal_r+0x394>
 4001ad4:	da000404 	addi	r8,sp,16
 4001ad8:	003f6306 	br	4001868 <__alt_mem_onchip_memory2_0+0xfbfff868>
 4001adc:	d8802017 	ldw	r2,128(sp)
 4001ae0:	10000426 	beq	r2,zero,4001af4 <___svfprintf_internal_r+0x394>
 4001ae4:	d9402c17 	ldw	r5,176(sp)
 4001ae8:	d9003917 	ldw	r4,228(sp)
 4001aec:	d9801e04 	addi	r6,sp,120
 4001af0:	400ae380 	call	400ae38 <__ssprint_r>
 4001af4:	d8802c17 	ldw	r2,176(sp)
 4001af8:	10c0030b 	ldhu	r3,12(r2)
 4001afc:	d8802f17 	ldw	r2,188(sp)
 4001b00:	18c0100c 	andi	r3,r3,64
 4001b04:	1805f51e 	bne	r3,zero,40032dc <___svfprintf_internal_r+0x1b7c>
 4001b08:	dfc04817 	ldw	ra,288(sp)
 4001b0c:	df004717 	ldw	fp,284(sp)
 4001b10:	ddc04617 	ldw	r23,280(sp)
 4001b14:	dd804517 	ldw	r22,276(sp)
 4001b18:	dd404417 	ldw	r21,272(sp)
 4001b1c:	dd004317 	ldw	r20,268(sp)
 4001b20:	dcc04217 	ldw	r19,264(sp)
 4001b24:	dc804117 	ldw	r18,260(sp)
 4001b28:	dc404017 	ldw	r17,256(sp)
 4001b2c:	dc003f17 	ldw	r16,252(sp)
 4001b30:	dec04904 	addi	sp,sp,292
 4001b34:	f800283a 	ret
 4001b38:	d8802d17 	ldw	r2,180(sp)
 4001b3c:	d9002d17 	ldw	r4,180(sp)
 4001b40:	10800017 	ldw	r2,0(r2)
 4001b44:	d8803115 	stw	r2,196(sp)
 4001b48:	20800104 	addi	r2,r4,4
 4001b4c:	d9003117 	ldw	r4,196(sp)
 4001b50:	203fb916 	blt	r4,zero,4001a38 <__alt_mem_onchip_memory2_0+0xfbfffa38>
 4001b54:	d8802d15 	stw	r2,180(sp)
 4001b58:	bc400007 	ldb	r17,0(r23)
 4001b5c:	003f5406 	br	40018b0 <__alt_mem_onchip_memory2_0+0xfbfff8b0>
 4001b60:	bc400007 	ldb	r17,0(r23)
 4001b64:	bac00044 	addi	r11,r23,1
 4001b68:	8a873926 	beq	r17,r10,4003850 <___svfprintf_internal_r+0x20f0>
 4001b6c:	88bff404 	addi	r2,r17,-48
 4001b70:	0009883a 	mov	r4,zero
 4001b74:	30868836 	bltu	r6,r2,4003598 <___svfprintf_internal_r+0x1e38>
 4001b78:	5c400007 	ldb	r17,0(r11)
 4001b7c:	210002a4 	muli	r4,r4,10
 4001b80:	5dc00044 	addi	r23,r11,1
 4001b84:	b817883a 	mov	r11,r23
 4001b88:	2089883a 	add	r4,r4,r2
 4001b8c:	88bff404 	addi	r2,r17,-48
 4001b90:	30bff92e 	bgeu	r6,r2,4001b78 <__alt_mem_onchip_memory2_0+0xfbfffb78>
 4001b94:	2005d716 	blt	r4,zero,40032f4 <___svfprintf_internal_r+0x1b94>
 4001b98:	d9002915 	stw	r4,164(sp)
 4001b9c:	003f4506 	br	40018b4 <__alt_mem_onchip_memory2_0+0xfbfff8b4>
 4001ba0:	b809883a 	mov	r4,r23
 4001ba4:	d8003115 	stw	zero,196(sp)
 4001ba8:	88bff404 	addi	r2,r17,-48
 4001bac:	0017883a 	mov	r11,zero
 4001bb0:	24400007 	ldb	r17,0(r4)
 4001bb4:	5ac002a4 	muli	r11,r11,10
 4001bb8:	bdc00044 	addi	r23,r23,1
 4001bbc:	b809883a 	mov	r4,r23
 4001bc0:	12d7883a 	add	r11,r2,r11
 4001bc4:	88bff404 	addi	r2,r17,-48
 4001bc8:	30bff92e 	bgeu	r6,r2,4001bb0 <__alt_mem_onchip_memory2_0+0xfbfffbb0>
 4001bcc:	dac03115 	stw	r11,196(sp)
 4001bd0:	003f3806 	br	40018b4 <__alt_mem_onchip_memory2_0+0xfbfff8b4>
 4001bd4:	94802014 	ori	r18,r18,128
 4001bd8:	bc400007 	ldb	r17,0(r23)
 4001bdc:	003f3406 	br	40018b0 <__alt_mem_onchip_memory2_0+0xfbfff8b0>
 4001be0:	18c03fcc 	andi	r3,r3,255
 4001be4:	1807471e 	bne	r3,zero,4003904 <___svfprintf_internal_r+0x21a4>
 4001be8:	9080020c 	andi	r2,r18,8
 4001bec:	10047d26 	beq	r2,zero,4002de4 <___svfprintf_internal_r+0x1684>
 4001bf0:	d8c02d17 	ldw	r3,180(sp)
 4001bf4:	d9002d17 	ldw	r4,180(sp)
 4001bf8:	d9402d17 	ldw	r5,180(sp)
 4001bfc:	18c00017 	ldw	r3,0(r3)
 4001c00:	21000117 	ldw	r4,4(r4)
 4001c04:	29400204 	addi	r5,r5,8
 4001c08:	d8c03615 	stw	r3,216(sp)
 4001c0c:	d9003715 	stw	r4,220(sp)
 4001c10:	d9402d15 	stw	r5,180(sp)
 4001c14:	d9003617 	ldw	r4,216(sp)
 4001c18:	d9403717 	ldw	r5,220(sp)
 4001c1c:	da003e15 	stw	r8,248(sp)
 4001c20:	04000044 	movi	r16,1
 4001c24:	400ab580 	call	400ab58 <__fpclassifyd>
 4001c28:	da003e17 	ldw	r8,248(sp)
 4001c2c:	14044b1e 	bne	r2,r16,4002d5c <___svfprintf_internal_r+0x15fc>
 4001c30:	d9003617 	ldw	r4,216(sp)
 4001c34:	d9403717 	ldw	r5,220(sp)
 4001c38:	000d883a 	mov	r6,zero
 4001c3c:	000f883a 	mov	r7,zero
 4001c40:	400ffc80 	call	400ffc8 <__ledf2>
 4001c44:	da003e17 	ldw	r8,248(sp)
 4001c48:	1005f316 	blt	r2,zero,4003418 <___svfprintf_internal_r+0x1cb8>
 4001c4c:	df002783 	ldbu	fp,158(sp)
 4001c50:	008011c4 	movi	r2,71
 4001c54:	1445590e 	bge	r2,r17,40031bc <___svfprintf_internal_r+0x1a5c>
 4001c58:	040100b4 	movhi	r16,1026
 4001c5c:	8432c304 	addi	r16,r16,-13556
 4001c60:	00c000c4 	movi	r3,3
 4001c64:	00bfdfc4 	movi	r2,-129
 4001c68:	d8c02a15 	stw	r3,168(sp)
 4001c6c:	90a4703a 	and	r18,r18,r2
 4001c70:	d8c02e15 	stw	r3,184(sp)
 4001c74:	d8002915 	stw	zero,164(sp)
 4001c78:	d8003215 	stw	zero,200(sp)
 4001c7c:	00006606 	br	4001e18 <___svfprintf_internal_r+0x6b8>
 4001c80:	94800214 	ori	r18,r18,8
 4001c84:	bc400007 	ldb	r17,0(r23)
 4001c88:	003f0906 	br	40018b0 <__alt_mem_onchip_memory2_0+0xfbfff8b0>
 4001c8c:	18c03fcc 	andi	r3,r3,255
 4001c90:	1807181e 	bne	r3,zero,40038f4 <___svfprintf_internal_r+0x2194>
 4001c94:	94800414 	ori	r18,r18,16
 4001c98:	9080080c 	andi	r2,r18,32
 4001c9c:	10039626 	beq	r2,zero,4002af8 <___svfprintf_internal_r+0x1398>
 4001ca0:	d9402d17 	ldw	r5,180(sp)
 4001ca4:	28800117 	ldw	r2,4(r5)
 4001ca8:	2d000017 	ldw	r20,0(r5)
 4001cac:	29400204 	addi	r5,r5,8
 4001cb0:	d9402d15 	stw	r5,180(sp)
 4001cb4:	102d883a 	mov	r22,r2
 4001cb8:	10039816 	blt	r2,zero,4002b1c <___svfprintf_internal_r+0x13bc>
 4001cbc:	d9402917 	ldw	r5,164(sp)
 4001cc0:	df002783 	ldbu	fp,158(sp)
 4001cc4:	2803ab16 	blt	r5,zero,4002b74 <___svfprintf_internal_r+0x1414>
 4001cc8:	00ffdfc4 	movi	r3,-129
 4001ccc:	a584b03a 	or	r2,r20,r22
 4001cd0:	90e4703a 	and	r18,r18,r3
 4001cd4:	10014a26 	beq	r2,zero,4002200 <___svfprintf_internal_r+0xaa0>
 4001cd8:	b0034b26 	beq	r22,zero,4002a08 <___svfprintf_internal_r+0x12a8>
 4001cdc:	dc402a15 	stw	r17,168(sp)
 4001ce0:	dc001e04 	addi	r16,sp,120
 4001ce4:	b023883a 	mov	r17,r22
 4001ce8:	402d883a 	mov	r22,r8
 4001cec:	a009883a 	mov	r4,r20
 4001cf0:	880b883a 	mov	r5,r17
 4001cf4:	01800284 	movi	r6,10
 4001cf8:	000f883a 	mov	r7,zero
 4001cfc:	400e7980 	call	400e798 <__umoddi3>
 4001d00:	10800c04 	addi	r2,r2,48
 4001d04:	843fffc4 	addi	r16,r16,-1
 4001d08:	a009883a 	mov	r4,r20
 4001d0c:	880b883a 	mov	r5,r17
 4001d10:	80800005 	stb	r2,0(r16)
 4001d14:	01800284 	movi	r6,10
 4001d18:	000f883a 	mov	r7,zero
 4001d1c:	400e2200 	call	400e220 <__udivdi3>
 4001d20:	1029883a 	mov	r20,r2
 4001d24:	10c4b03a 	or	r2,r2,r3
 4001d28:	1823883a 	mov	r17,r3
 4001d2c:	103fef1e 	bne	r2,zero,4001cec <__alt_mem_onchip_memory2_0+0xfbfffcec>
 4001d30:	d8c02817 	ldw	r3,160(sp)
 4001d34:	dc402a17 	ldw	r17,168(sp)
 4001d38:	b011883a 	mov	r8,r22
 4001d3c:	1c07c83a 	sub	r3,r3,r16
 4001d40:	d8c02e15 	stw	r3,184(sp)
 4001d44:	00002e06 	br	4001e00 <___svfprintf_internal_r+0x6a0>
 4001d48:	18c03fcc 	andi	r3,r3,255
 4001d4c:	1806e71e 	bne	r3,zero,40038ec <___svfprintf_internal_r+0x218c>
 4001d50:	94800414 	ori	r18,r18,16
 4001d54:	9080080c 	andi	r2,r18,32
 4001d58:	1002d426 	beq	r2,zero,40028ac <___svfprintf_internal_r+0x114c>
 4001d5c:	d9402d17 	ldw	r5,180(sp)
 4001d60:	d8c02917 	ldw	r3,164(sp)
 4001d64:	d8002785 	stb	zero,158(sp)
 4001d68:	28800204 	addi	r2,r5,8
 4001d6c:	2d000017 	ldw	r20,0(r5)
 4001d70:	2d800117 	ldw	r22,4(r5)
 4001d74:	18041516 	blt	r3,zero,4002dcc <___svfprintf_internal_r+0x166c>
 4001d78:	013fdfc4 	movi	r4,-129
 4001d7c:	a586b03a 	or	r3,r20,r22
 4001d80:	d8802d15 	stw	r2,180(sp)
 4001d84:	9124703a 	and	r18,r18,r4
 4001d88:	1802d51e 	bne	r3,zero,40028e0 <___svfprintf_internal_r+0x1180>
 4001d8c:	d9402917 	ldw	r5,164(sp)
 4001d90:	0039883a 	mov	fp,zero
 4001d94:	2806be26 	beq	r5,zero,4003890 <___svfprintf_internal_r+0x2130>
 4001d98:	0029883a 	mov	r20,zero
 4001d9c:	002d883a 	mov	r22,zero
 4001da0:	dc001e04 	addi	r16,sp,120
 4001da4:	a006d0fa 	srli	r3,r20,3
 4001da8:	b008977a 	slli	r4,r22,29
 4001dac:	b02cd0fa 	srli	r22,r22,3
 4001db0:	a50001cc 	andi	r20,r20,7
 4001db4:	a0800c04 	addi	r2,r20,48
 4001db8:	843fffc4 	addi	r16,r16,-1
 4001dbc:	20e8b03a 	or	r20,r4,r3
 4001dc0:	80800005 	stb	r2,0(r16)
 4001dc4:	a586b03a 	or	r3,r20,r22
 4001dc8:	183ff61e 	bne	r3,zero,4001da4 <__alt_mem_onchip_memory2_0+0xfbfffda4>
 4001dcc:	90c0004c 	andi	r3,r18,1
 4001dd0:	18013926 	beq	r3,zero,40022b8 <___svfprintf_internal_r+0xb58>
 4001dd4:	10803fcc 	andi	r2,r2,255
 4001dd8:	1080201c 	xori	r2,r2,128
 4001ddc:	10bfe004 	addi	r2,r2,-128
 4001de0:	00c00c04 	movi	r3,48
 4001de4:	10c13426 	beq	r2,r3,40022b8 <___svfprintf_internal_r+0xb58>
 4001de8:	80ffffc5 	stb	r3,-1(r16)
 4001dec:	d8c02817 	ldw	r3,160(sp)
 4001df0:	80bfffc4 	addi	r2,r16,-1
 4001df4:	1021883a 	mov	r16,r2
 4001df8:	1887c83a 	sub	r3,r3,r2
 4001dfc:	d8c02e15 	stw	r3,184(sp)
 4001e00:	d8802e17 	ldw	r2,184(sp)
 4001e04:	d9002917 	ldw	r4,164(sp)
 4001e08:	1100010e 	bge	r2,r4,4001e10 <___svfprintf_internal_r+0x6b0>
 4001e0c:	2005883a 	mov	r2,r4
 4001e10:	d8802a15 	stw	r2,168(sp)
 4001e14:	d8003215 	stw	zero,200(sp)
 4001e18:	e7003fcc 	andi	fp,fp,255
 4001e1c:	e700201c 	xori	fp,fp,128
 4001e20:	e73fe004 	addi	fp,fp,-128
 4001e24:	e0000326 	beq	fp,zero,4001e34 <___svfprintf_internal_r+0x6d4>
 4001e28:	d8c02a17 	ldw	r3,168(sp)
 4001e2c:	18c00044 	addi	r3,r3,1
 4001e30:	d8c02a15 	stw	r3,168(sp)
 4001e34:	90c0008c 	andi	r3,r18,2
 4001e38:	d8c02b15 	stw	r3,172(sp)
 4001e3c:	18000326 	beq	r3,zero,4001e4c <___svfprintf_internal_r+0x6ec>
 4001e40:	d8c02a17 	ldw	r3,168(sp)
 4001e44:	18c00084 	addi	r3,r3,2
 4001e48:	d8c02a15 	stw	r3,168(sp)
 4001e4c:	90c0210c 	andi	r3,r18,132
 4001e50:	d8c03015 	stw	r3,192(sp)
 4001e54:	1801a11e 	bne	r3,zero,40024dc <___svfprintf_internal_r+0xd7c>
 4001e58:	d9003117 	ldw	r4,196(sp)
 4001e5c:	d8c02a17 	ldw	r3,168(sp)
 4001e60:	20e9c83a 	sub	r20,r4,r3
 4001e64:	05019d0e 	bge	zero,r20,40024dc <___svfprintf_internal_r+0xd7c>
 4001e68:	02400404 	movi	r9,16
 4001e6c:	d8c02017 	ldw	r3,128(sp)
 4001e70:	d8801f17 	ldw	r2,124(sp)
 4001e74:	4d051b0e 	bge	r9,r20,40032e4 <___svfprintf_internal_r+0x1b84>
 4001e78:	014100b4 	movhi	r5,1026
 4001e7c:	2972d684 	addi	r5,r5,-13478
 4001e80:	dc403c15 	stw	r17,240(sp)
 4001e84:	d9403515 	stw	r5,212(sp)
 4001e88:	a023883a 	mov	r17,r20
 4001e8c:	482d883a 	mov	r22,r9
 4001e90:	9029883a 	mov	r20,r18
 4001e94:	070001c4 	movi	fp,7
 4001e98:	8025883a 	mov	r18,r16
 4001e9c:	dc002c17 	ldw	r16,176(sp)
 4001ea0:	00000306 	br	4001eb0 <___svfprintf_internal_r+0x750>
 4001ea4:	8c7ffc04 	addi	r17,r17,-16
 4001ea8:	42000204 	addi	r8,r8,8
 4001eac:	b440130e 	bge	r22,r17,4001efc <___svfprintf_internal_r+0x79c>
 4001eb0:	010100b4 	movhi	r4,1026
 4001eb4:	18c00404 	addi	r3,r3,16
 4001eb8:	10800044 	addi	r2,r2,1
 4001ebc:	2132d684 	addi	r4,r4,-13478
 4001ec0:	41000015 	stw	r4,0(r8)
 4001ec4:	45800115 	stw	r22,4(r8)
 4001ec8:	d8c02015 	stw	r3,128(sp)
 4001ecc:	d8801f15 	stw	r2,124(sp)
 4001ed0:	e0bff40e 	bge	fp,r2,4001ea4 <__alt_mem_onchip_memory2_0+0xfbfffea4>
 4001ed4:	d9801e04 	addi	r6,sp,120
 4001ed8:	800b883a 	mov	r5,r16
 4001edc:	9809883a 	mov	r4,r19
 4001ee0:	400ae380 	call	400ae38 <__ssprint_r>
 4001ee4:	103f031e 	bne	r2,zero,4001af4 <__alt_mem_onchip_memory2_0+0xfbfffaf4>
 4001ee8:	8c7ffc04 	addi	r17,r17,-16
 4001eec:	d8c02017 	ldw	r3,128(sp)
 4001ef0:	d8801f17 	ldw	r2,124(sp)
 4001ef4:	da000404 	addi	r8,sp,16
 4001ef8:	b47fed16 	blt	r22,r17,4001eb0 <__alt_mem_onchip_memory2_0+0xfbfffeb0>
 4001efc:	9021883a 	mov	r16,r18
 4001f00:	a025883a 	mov	r18,r20
 4001f04:	8829883a 	mov	r20,r17
 4001f08:	dc403c17 	ldw	r17,240(sp)
 4001f0c:	d9403517 	ldw	r5,212(sp)
 4001f10:	a0c7883a 	add	r3,r20,r3
 4001f14:	10800044 	addi	r2,r2,1
 4001f18:	41400015 	stw	r5,0(r8)
 4001f1c:	45000115 	stw	r20,4(r8)
 4001f20:	d8c02015 	stw	r3,128(sp)
 4001f24:	d8801f15 	stw	r2,124(sp)
 4001f28:	010001c4 	movi	r4,7
 4001f2c:	20829f16 	blt	r4,r2,40029ac <___svfprintf_internal_r+0x124c>
 4001f30:	df002787 	ldb	fp,158(sp)
 4001f34:	42000204 	addi	r8,r8,8
 4001f38:	e0000c26 	beq	fp,zero,4001f6c <___svfprintf_internal_r+0x80c>
 4001f3c:	d8801f17 	ldw	r2,124(sp)
 4001f40:	d9002784 	addi	r4,sp,158
 4001f44:	18c00044 	addi	r3,r3,1
 4001f48:	10800044 	addi	r2,r2,1
 4001f4c:	41000015 	stw	r4,0(r8)
 4001f50:	01000044 	movi	r4,1
 4001f54:	41000115 	stw	r4,4(r8)
 4001f58:	d8c02015 	stw	r3,128(sp)
 4001f5c:	d8801f15 	stw	r2,124(sp)
 4001f60:	010001c4 	movi	r4,7
 4001f64:	20823816 	blt	r4,r2,4002848 <___svfprintf_internal_r+0x10e8>
 4001f68:	42000204 	addi	r8,r8,8
 4001f6c:	d8802b17 	ldw	r2,172(sp)
 4001f70:	10000c26 	beq	r2,zero,4001fa4 <___svfprintf_internal_r+0x844>
 4001f74:	d8801f17 	ldw	r2,124(sp)
 4001f78:	d9002704 	addi	r4,sp,156
 4001f7c:	18c00084 	addi	r3,r3,2
 4001f80:	10800044 	addi	r2,r2,1
 4001f84:	41000015 	stw	r4,0(r8)
 4001f88:	01000084 	movi	r4,2
 4001f8c:	41000115 	stw	r4,4(r8)
 4001f90:	d8c02015 	stw	r3,128(sp)
 4001f94:	d8801f15 	stw	r2,124(sp)
 4001f98:	010001c4 	movi	r4,7
 4001f9c:	20823216 	blt	r4,r2,4002868 <___svfprintf_internal_r+0x1108>
 4001fa0:	42000204 	addi	r8,r8,8
 4001fa4:	d9003017 	ldw	r4,192(sp)
 4001fa8:	00802004 	movi	r2,128
 4001fac:	20819726 	beq	r4,r2,400260c <___svfprintf_internal_r+0xeac>
 4001fb0:	d9402917 	ldw	r5,164(sp)
 4001fb4:	d8802e17 	ldw	r2,184(sp)
 4001fb8:	28adc83a 	sub	r22,r5,r2
 4001fbc:	05802f0e 	bge	zero,r22,400207c <___svfprintf_internal_r+0x91c>
 4001fc0:	07000404 	movi	fp,16
 4001fc4:	d8801f17 	ldw	r2,124(sp)
 4001fc8:	e583c00e 	bge	fp,r22,4002ecc <___svfprintf_internal_r+0x176c>
 4001fcc:	014100b4 	movhi	r5,1026
 4001fd0:	2972d284 	addi	r5,r5,-13494
 4001fd4:	dc402915 	stw	r17,164(sp)
 4001fd8:	d9402b15 	stw	r5,172(sp)
 4001fdc:	b023883a 	mov	r17,r22
 4001fe0:	050001c4 	movi	r20,7
 4001fe4:	902d883a 	mov	r22,r18
 4001fe8:	8025883a 	mov	r18,r16
 4001fec:	dc002c17 	ldw	r16,176(sp)
 4001ff0:	00000306 	br	4002000 <___svfprintf_internal_r+0x8a0>
 4001ff4:	8c7ffc04 	addi	r17,r17,-16
 4001ff8:	42000204 	addi	r8,r8,8
 4001ffc:	e440110e 	bge	fp,r17,4002044 <___svfprintf_internal_r+0x8e4>
 4002000:	18c00404 	addi	r3,r3,16
 4002004:	10800044 	addi	r2,r2,1
 4002008:	45400015 	stw	r21,0(r8)
 400200c:	47000115 	stw	fp,4(r8)
 4002010:	d8c02015 	stw	r3,128(sp)
 4002014:	d8801f15 	stw	r2,124(sp)
 4002018:	a0bff60e 	bge	r20,r2,4001ff4 <__alt_mem_onchip_memory2_0+0xfbfffff4>
 400201c:	d9801e04 	addi	r6,sp,120
 4002020:	800b883a 	mov	r5,r16
 4002024:	9809883a 	mov	r4,r19
 4002028:	400ae380 	call	400ae38 <__ssprint_r>
 400202c:	103eb11e 	bne	r2,zero,4001af4 <__alt_mem_onchip_memory2_0+0xfbfffaf4>
 4002030:	8c7ffc04 	addi	r17,r17,-16
 4002034:	d8c02017 	ldw	r3,128(sp)
 4002038:	d8801f17 	ldw	r2,124(sp)
 400203c:	da000404 	addi	r8,sp,16
 4002040:	e47fef16 	blt	fp,r17,4002000 <__alt_mem_onchip_memory2_0+0xfc000000>
 4002044:	9021883a 	mov	r16,r18
 4002048:	b025883a 	mov	r18,r22
 400204c:	882d883a 	mov	r22,r17
 4002050:	dc402917 	ldw	r17,164(sp)
 4002054:	d9002b17 	ldw	r4,172(sp)
 4002058:	1d87883a 	add	r3,r3,r22
 400205c:	10800044 	addi	r2,r2,1
 4002060:	41000015 	stw	r4,0(r8)
 4002064:	45800115 	stw	r22,4(r8)
 4002068:	d8c02015 	stw	r3,128(sp)
 400206c:	d8801f15 	stw	r2,124(sp)
 4002070:	010001c4 	movi	r4,7
 4002074:	2081ec16 	blt	r4,r2,4002828 <___svfprintf_internal_r+0x10c8>
 4002078:	42000204 	addi	r8,r8,8
 400207c:	9080400c 	andi	r2,r18,256
 4002080:	1001181e 	bne	r2,zero,40024e4 <___svfprintf_internal_r+0xd84>
 4002084:	d9402e17 	ldw	r5,184(sp)
 4002088:	d8801f17 	ldw	r2,124(sp)
 400208c:	44000015 	stw	r16,0(r8)
 4002090:	1947883a 	add	r3,r3,r5
 4002094:	10800044 	addi	r2,r2,1
 4002098:	41400115 	stw	r5,4(r8)
 400209c:	d8c02015 	stw	r3,128(sp)
 40020a0:	d8801f15 	stw	r2,124(sp)
 40020a4:	010001c4 	movi	r4,7
 40020a8:	2081d116 	blt	r4,r2,40027f0 <___svfprintf_internal_r+0x1090>
 40020ac:	42000204 	addi	r8,r8,8
 40020b0:	9480010c 	andi	r18,r18,4
 40020b4:	90003226 	beq	r18,zero,4002180 <___svfprintf_internal_r+0xa20>
 40020b8:	d9403117 	ldw	r5,196(sp)
 40020bc:	d8802a17 	ldw	r2,168(sp)
 40020c0:	28a1c83a 	sub	r16,r5,r2
 40020c4:	04002e0e 	bge	zero,r16,4002180 <___svfprintf_internal_r+0xa20>
 40020c8:	04400404 	movi	r17,16
 40020cc:	d8801f17 	ldw	r2,124(sp)
 40020d0:	8c04b90e 	bge	r17,r16,40033b8 <___svfprintf_internal_r+0x1c58>
 40020d4:	014100b4 	movhi	r5,1026
 40020d8:	2972d684 	addi	r5,r5,-13478
 40020dc:	d9403515 	stw	r5,212(sp)
 40020e0:	048001c4 	movi	r18,7
 40020e4:	dd002c17 	ldw	r20,176(sp)
 40020e8:	00000306 	br	40020f8 <___svfprintf_internal_r+0x998>
 40020ec:	843ffc04 	addi	r16,r16,-16
 40020f0:	42000204 	addi	r8,r8,8
 40020f4:	8c00130e 	bge	r17,r16,4002144 <___svfprintf_internal_r+0x9e4>
 40020f8:	010100b4 	movhi	r4,1026
 40020fc:	18c00404 	addi	r3,r3,16
 4002100:	10800044 	addi	r2,r2,1
 4002104:	2132d684 	addi	r4,r4,-13478
 4002108:	41000015 	stw	r4,0(r8)
 400210c:	44400115 	stw	r17,4(r8)
 4002110:	d8c02015 	stw	r3,128(sp)
 4002114:	d8801f15 	stw	r2,124(sp)
 4002118:	90bff40e 	bge	r18,r2,40020ec <__alt_mem_onchip_memory2_0+0xfc0000ec>
 400211c:	d9801e04 	addi	r6,sp,120
 4002120:	a00b883a 	mov	r5,r20
 4002124:	9809883a 	mov	r4,r19
 4002128:	400ae380 	call	400ae38 <__ssprint_r>
 400212c:	103e711e 	bne	r2,zero,4001af4 <__alt_mem_onchip_memory2_0+0xfbfffaf4>
 4002130:	843ffc04 	addi	r16,r16,-16
 4002134:	d8c02017 	ldw	r3,128(sp)
 4002138:	d8801f17 	ldw	r2,124(sp)
 400213c:	da000404 	addi	r8,sp,16
 4002140:	8c3fed16 	blt	r17,r16,40020f8 <__alt_mem_onchip_memory2_0+0xfc0000f8>
 4002144:	d9403517 	ldw	r5,212(sp)
 4002148:	1c07883a 	add	r3,r3,r16
 400214c:	10800044 	addi	r2,r2,1
 4002150:	41400015 	stw	r5,0(r8)
 4002154:	44000115 	stw	r16,4(r8)
 4002158:	d8c02015 	stw	r3,128(sp)
 400215c:	d8801f15 	stw	r2,124(sp)
 4002160:	010001c4 	movi	r4,7
 4002164:	2080060e 	bge	r4,r2,4002180 <___svfprintf_internal_r+0xa20>
 4002168:	d9402c17 	ldw	r5,176(sp)
 400216c:	d9801e04 	addi	r6,sp,120
 4002170:	9809883a 	mov	r4,r19
 4002174:	400ae380 	call	400ae38 <__ssprint_r>
 4002178:	103e5e1e 	bne	r2,zero,4001af4 <__alt_mem_onchip_memory2_0+0xfbfffaf4>
 400217c:	d8c02017 	ldw	r3,128(sp)
 4002180:	d8803117 	ldw	r2,196(sp)
 4002184:	d9002a17 	ldw	r4,168(sp)
 4002188:	1100010e 	bge	r2,r4,4002190 <___svfprintf_internal_r+0xa30>
 400218c:	2005883a 	mov	r2,r4
 4002190:	d9402f17 	ldw	r5,188(sp)
 4002194:	288b883a 	add	r5,r5,r2
 4002198:	d9402f15 	stw	r5,188(sp)
 400219c:	18019c1e 	bne	r3,zero,4002810 <___svfprintf_internal_r+0x10b0>
 40021a0:	b8800007 	ldb	r2,0(r23)
 40021a4:	d8001f15 	stw	zero,124(sp)
 40021a8:	da000404 	addi	r8,sp,16
 40021ac:	103d991e 	bne	r2,zero,4001814 <__alt_mem_onchip_memory2_0+0xfbfff814>
 40021b0:	b821883a 	mov	r16,r23
 40021b4:	003daf06 	br	4001874 <__alt_mem_onchip_memory2_0+0xfbfff874>
 40021b8:	18c03fcc 	andi	r3,r3,255
 40021bc:	1805c71e 	bne	r3,zero,40038dc <___svfprintf_internal_r+0x217c>
 40021c0:	94800414 	ori	r18,r18,16
 40021c4:	9080080c 	andi	r2,r18,32
 40021c8:	10020126 	beq	r2,zero,40029d0 <___svfprintf_internal_r+0x1270>
 40021cc:	d8802d17 	ldw	r2,180(sp)
 40021d0:	d9002917 	ldw	r4,164(sp)
 40021d4:	d8002785 	stb	zero,158(sp)
 40021d8:	10c00204 	addi	r3,r2,8
 40021dc:	15000017 	ldw	r20,0(r2)
 40021e0:	15800117 	ldw	r22,4(r2)
 40021e4:	20038e16 	blt	r4,zero,4003020 <___svfprintf_internal_r+0x18c0>
 40021e8:	013fdfc4 	movi	r4,-129
 40021ec:	a584b03a 	or	r2,r20,r22
 40021f0:	d8c02d15 	stw	r3,180(sp)
 40021f4:	9124703a 	and	r18,r18,r4
 40021f8:	0039883a 	mov	fp,zero
 40021fc:	103eb61e 	bne	r2,zero,4001cd8 <__alt_mem_onchip_memory2_0+0xfbfffcd8>
 4002200:	d8802917 	ldw	r2,164(sp)
 4002204:	1002c81e 	bne	r2,zero,4002d28 <___svfprintf_internal_r+0x15c8>
 4002208:	d8002915 	stw	zero,164(sp)
 400220c:	d8002e15 	stw	zero,184(sp)
 4002210:	dc001e04 	addi	r16,sp,120
 4002214:	003efa06 	br	4001e00 <__alt_mem_onchip_memory2_0+0xfbfffe00>
 4002218:	18c03fcc 	andi	r3,r3,255
 400221c:	1805ad1e 	bne	r3,zero,40038d4 <___svfprintf_internal_r+0x2174>
 4002220:	014100b4 	movhi	r5,1026
 4002224:	2972c604 	addi	r5,r5,-13544
 4002228:	d9403a15 	stw	r5,232(sp)
 400222c:	9080080c 	andi	r2,r18,32
 4002230:	10006126 	beq	r2,zero,40023b8 <___svfprintf_internal_r+0xc58>
 4002234:	d8802d17 	ldw	r2,180(sp)
 4002238:	15000017 	ldw	r20,0(r2)
 400223c:	15800117 	ldw	r22,4(r2)
 4002240:	10800204 	addi	r2,r2,8
 4002244:	d8802d15 	stw	r2,180(sp)
 4002248:	9080004c 	andi	r2,r18,1
 400224c:	10018e26 	beq	r2,zero,4002888 <___svfprintf_internal_r+0x1128>
 4002250:	a584b03a 	or	r2,r20,r22
 4002254:	10030926 	beq	r2,zero,4002e7c <___svfprintf_internal_r+0x171c>
 4002258:	d8c02917 	ldw	r3,164(sp)
 400225c:	00800c04 	movi	r2,48
 4002260:	d8802705 	stb	r2,156(sp)
 4002264:	dc402745 	stb	r17,157(sp)
 4002268:	d8002785 	stb	zero,158(sp)
 400226c:	90800094 	ori	r2,r18,2
 4002270:	18048716 	blt	r3,zero,4003490 <___svfprintf_internal_r+0x1d30>
 4002274:	00bfdfc4 	movi	r2,-129
 4002278:	90a4703a 	and	r18,r18,r2
 400227c:	94800094 	ori	r18,r18,2
 4002280:	0039883a 	mov	fp,zero
 4002284:	d9003a17 	ldw	r4,232(sp)
 4002288:	dc001e04 	addi	r16,sp,120
 400228c:	a08003cc 	andi	r2,r20,15
 4002290:	b006973a 	slli	r3,r22,28
 4002294:	2085883a 	add	r2,r4,r2
 4002298:	a028d13a 	srli	r20,r20,4
 400229c:	10800003 	ldbu	r2,0(r2)
 40022a0:	b02cd13a 	srli	r22,r22,4
 40022a4:	843fffc4 	addi	r16,r16,-1
 40022a8:	1d28b03a 	or	r20,r3,r20
 40022ac:	80800005 	stb	r2,0(r16)
 40022b0:	a584b03a 	or	r2,r20,r22
 40022b4:	103ff51e 	bne	r2,zero,400228c <__alt_mem_onchip_memory2_0+0xfc00028c>
 40022b8:	d8c02817 	ldw	r3,160(sp)
 40022bc:	1c07c83a 	sub	r3,r3,r16
 40022c0:	d8c02e15 	stw	r3,184(sp)
 40022c4:	003ece06 	br	4001e00 <__alt_mem_onchip_memory2_0+0xfbfffe00>
 40022c8:	d8c02d17 	ldw	r3,180(sp)
 40022cc:	d9002d17 	ldw	r4,180(sp)
 40022d0:	d8002785 	stb	zero,158(sp)
 40022d4:	18800017 	ldw	r2,0(r3)
 40022d8:	21000104 	addi	r4,r4,4
 40022dc:	00c00044 	movi	r3,1
 40022e0:	d8c02a15 	stw	r3,168(sp)
 40022e4:	d8801405 	stb	r2,80(sp)
 40022e8:	d9002d15 	stw	r4,180(sp)
 40022ec:	d8c02e15 	stw	r3,184(sp)
 40022f0:	d8002915 	stw	zero,164(sp)
 40022f4:	d8003215 	stw	zero,200(sp)
 40022f8:	dc001404 	addi	r16,sp,80
 40022fc:	0039883a 	mov	fp,zero
 4002300:	003ecc06 	br	4001e34 <__alt_mem_onchip_memory2_0+0xfbfffe34>
 4002304:	18c03fcc 	andi	r3,r3,255
 4002308:	183e9226 	beq	r3,zero,4001d54 <__alt_mem_onchip_memory2_0+0xfbfffd54>
 400230c:	d9c02785 	stb	r7,158(sp)
 4002310:	003e9006 	br	4001d54 <__alt_mem_onchip_memory2_0+0xfbfffd54>
 4002314:	00c00044 	movi	r3,1
 4002318:	01c00ac4 	movi	r7,43
 400231c:	bc400007 	ldb	r17,0(r23)
 4002320:	003d6306 	br	40018b0 <__alt_mem_onchip_memory2_0+0xfbfff8b0>
 4002324:	94800814 	ori	r18,r18,32
 4002328:	bc400007 	ldb	r17,0(r23)
 400232c:	003d6006 	br	40018b0 <__alt_mem_onchip_memory2_0+0xfbfff8b0>
 4002330:	d8c02d17 	ldw	r3,180(sp)
 4002334:	d8002785 	stb	zero,158(sp)
 4002338:	1c000017 	ldw	r16,0(r3)
 400233c:	1d000104 	addi	r20,r3,4
 4002340:	80040f26 	beq	r16,zero,4003380 <___svfprintf_internal_r+0x1c20>
 4002344:	d9002917 	ldw	r4,164(sp)
 4002348:	2003dc16 	blt	r4,zero,40032bc <___svfprintf_internal_r+0x1b5c>
 400234c:	200d883a 	mov	r6,r4
 4002350:	000b883a 	mov	r5,zero
 4002354:	8009883a 	mov	r4,r16
 4002358:	da003e15 	stw	r8,248(sp)
 400235c:	40091480 	call	4009148 <memchr>
 4002360:	da003e17 	ldw	r8,248(sp)
 4002364:	10045826 	beq	r2,zero,40034c8 <___svfprintf_internal_r+0x1d68>
 4002368:	1405c83a 	sub	r2,r2,r16
 400236c:	d8802e15 	stw	r2,184(sp)
 4002370:	1003d816 	blt	r2,zero,40032d4 <___svfprintf_internal_r+0x1b74>
 4002374:	df002783 	ldbu	fp,158(sp)
 4002378:	d8802a15 	stw	r2,168(sp)
 400237c:	dd002d15 	stw	r20,180(sp)
 4002380:	d8002915 	stw	zero,164(sp)
 4002384:	d8003215 	stw	zero,200(sp)
 4002388:	003ea306 	br	4001e18 <__alt_mem_onchip_memory2_0+0xfbfffe18>
 400238c:	18c03fcc 	andi	r3,r3,255
 4002390:	183f8c26 	beq	r3,zero,40021c4 <__alt_mem_onchip_memory2_0+0xfc0001c4>
 4002394:	d9c02785 	stb	r7,158(sp)
 4002398:	003f8a06 	br	40021c4 <__alt_mem_onchip_memory2_0+0xfc0001c4>
 400239c:	18c03fcc 	andi	r3,r3,255
 40023a0:	1805631e 	bne	r3,zero,4003930 <___svfprintf_internal_r+0x21d0>
 40023a4:	014100b4 	movhi	r5,1026
 40023a8:	2972cb04 	addi	r5,r5,-13524
 40023ac:	d9403a15 	stw	r5,232(sp)
 40023b0:	9080080c 	andi	r2,r18,32
 40023b4:	103f9f1e 	bne	r2,zero,4002234 <__alt_mem_onchip_memory2_0+0xfc000234>
 40023b8:	9080040c 	andi	r2,r18,16
 40023bc:	10029c26 	beq	r2,zero,4002e30 <___svfprintf_internal_r+0x16d0>
 40023c0:	d8c02d17 	ldw	r3,180(sp)
 40023c4:	002d883a 	mov	r22,zero
 40023c8:	1d000017 	ldw	r20,0(r3)
 40023cc:	18c00104 	addi	r3,r3,4
 40023d0:	d8c02d15 	stw	r3,180(sp)
 40023d4:	003f9c06 	br	4002248 <__alt_mem_onchip_memory2_0+0xfc000248>
 40023d8:	94800054 	ori	r18,r18,1
 40023dc:	bc400007 	ldb	r17,0(r23)
 40023e0:	003d3306 	br	40018b0 <__alt_mem_onchip_memory2_0+0xfbfff8b0>
 40023e4:	38803fcc 	andi	r2,r7,255
 40023e8:	1080201c 	xori	r2,r2,128
 40023ec:	10bfe004 	addi	r2,r2,-128
 40023f0:	1002971e 	bne	r2,zero,4002e50 <___svfprintf_internal_r+0x16f0>
 40023f4:	00c00044 	movi	r3,1
 40023f8:	01c00804 	movi	r7,32
 40023fc:	bc400007 	ldb	r17,0(r23)
 4002400:	003d2b06 	br	40018b0 <__alt_mem_onchip_memory2_0+0xfbfff8b0>
 4002404:	18c03fcc 	andi	r3,r3,255
 4002408:	183e2326 	beq	r3,zero,4001c98 <__alt_mem_onchip_memory2_0+0xfbfffc98>
 400240c:	d9c02785 	stb	r7,158(sp)
 4002410:	003e2106 	br	4001c98 <__alt_mem_onchip_memory2_0+0xfbfffc98>
 4002414:	bc400007 	ldb	r17,0(r23)
 4002418:	8a430426 	beq	r17,r9,400302c <___svfprintf_internal_r+0x18cc>
 400241c:	94800414 	ori	r18,r18,16
 4002420:	003d2306 	br	40018b0 <__alt_mem_onchip_memory2_0+0xfbfff8b0>
 4002424:	18c03fcc 	andi	r3,r3,255
 4002428:	18053f1e 	bne	r3,zero,4003928 <___svfprintf_internal_r+0x21c8>
 400242c:	9080080c 	andi	r2,r18,32
 4002430:	10028926 	beq	r2,zero,4002e58 <___svfprintf_internal_r+0x16f8>
 4002434:	d9402d17 	ldw	r5,180(sp)
 4002438:	d9002f17 	ldw	r4,188(sp)
 400243c:	28800017 	ldw	r2,0(r5)
 4002440:	2007d7fa 	srai	r3,r4,31
 4002444:	29400104 	addi	r5,r5,4
 4002448:	d9402d15 	stw	r5,180(sp)
 400244c:	11000015 	stw	r4,0(r2)
 4002450:	10c00115 	stw	r3,4(r2)
 4002454:	003ced06 	br	400180c <__alt_mem_onchip_memory2_0+0xfbfff80c>
 4002458:	94801014 	ori	r18,r18,64
 400245c:	bc400007 	ldb	r17,0(r23)
 4002460:	003d1306 	br	40018b0 <__alt_mem_onchip_memory2_0+0xfbfff8b0>
 4002464:	010100b4 	movhi	r4,1026
 4002468:	2132cb04 	addi	r4,r4,-13524
 400246c:	0039883a 	mov	fp,zero
 4002470:	d9003a15 	stw	r4,232(sp)
 4002474:	04401e04 	movi	r17,120
 4002478:	003f8206 	br	4002284 <__alt_mem_onchip_memory2_0+0xfc000284>
 400247c:	18c03fcc 	andi	r3,r3,255
 4002480:	1805221e 	bne	r3,zero,400390c <___svfprintf_internal_r+0x21ac>
 4002484:	883d9526 	beq	r17,zero,4001adc <__alt_mem_onchip_memory2_0+0xfbfffadc>
 4002488:	00c00044 	movi	r3,1
 400248c:	d8c02a15 	stw	r3,168(sp)
 4002490:	dc401405 	stb	r17,80(sp)
 4002494:	d8002785 	stb	zero,158(sp)
 4002498:	003f9406 	br	40022ec <__alt_mem_onchip_memory2_0+0xfc0002ec>
 400249c:	010100b4 	movhi	r4,1026
 40024a0:	2132cb04 	addi	r4,r4,-13524
 40024a4:	d9003a15 	stw	r4,232(sp)
 40024a8:	d8c02d15 	stw	r3,180(sp)
 40024ac:	1025883a 	mov	r18,r2
 40024b0:	04401e04 	movi	r17,120
 40024b4:	a584b03a 	or	r2,r20,r22
 40024b8:	1000fa1e 	bne	r2,zero,40028a4 <___svfprintf_internal_r+0x1144>
 40024bc:	0039883a 	mov	fp,zero
 40024c0:	00800084 	movi	r2,2
 40024c4:	10803fcc 	andi	r2,r2,255
 40024c8:	00c00044 	movi	r3,1
 40024cc:	10c21626 	beq	r2,r3,4002d28 <___svfprintf_internal_r+0x15c8>
 40024d0:	00c00084 	movi	r3,2
 40024d4:	10fe301e 	bne	r2,r3,4001d98 <__alt_mem_onchip_memory2_0+0xfbfffd98>
 40024d8:	003d7606 	br	4001ab4 <__alt_mem_onchip_memory2_0+0xfbfffab4>
 40024dc:	d8c02017 	ldw	r3,128(sp)
 40024e0:	003e9506 	br	4001f38 <__alt_mem_onchip_memory2_0+0xfbffff38>
 40024e4:	00801944 	movi	r2,101
 40024e8:	14407c0e 	bge	r2,r17,40026dc <___svfprintf_internal_r+0xf7c>
 40024ec:	d9003617 	ldw	r4,216(sp)
 40024f0:	d9403717 	ldw	r5,220(sp)
 40024f4:	000d883a 	mov	r6,zero
 40024f8:	000f883a 	mov	r7,zero
 40024fc:	d8c03d15 	stw	r3,244(sp)
 4002500:	da003e15 	stw	r8,248(sp)
 4002504:	400fe640 	call	400fe64 <__eqdf2>
 4002508:	d8c03d17 	ldw	r3,244(sp)
 400250c:	da003e17 	ldw	r8,248(sp)
 4002510:	1000f51e 	bne	r2,zero,40028e8 <___svfprintf_internal_r+0x1188>
 4002514:	d8801f17 	ldw	r2,124(sp)
 4002518:	010100b4 	movhi	r4,1026
 400251c:	2132d204 	addi	r4,r4,-13496
 4002520:	18c00044 	addi	r3,r3,1
 4002524:	10800044 	addi	r2,r2,1
 4002528:	41000015 	stw	r4,0(r8)
 400252c:	01000044 	movi	r4,1
 4002530:	41000115 	stw	r4,4(r8)
 4002534:	d8c02015 	stw	r3,128(sp)
 4002538:	d8801f15 	stw	r2,124(sp)
 400253c:	010001c4 	movi	r4,7
 4002540:	20826616 	blt	r4,r2,4002edc <___svfprintf_internal_r+0x177c>
 4002544:	42000204 	addi	r8,r8,8
 4002548:	d8802617 	ldw	r2,152(sp)
 400254c:	d9403317 	ldw	r5,204(sp)
 4002550:	11400216 	blt	r2,r5,400255c <___svfprintf_internal_r+0xdfc>
 4002554:	9080004c 	andi	r2,r18,1
 4002558:	103ed526 	beq	r2,zero,40020b0 <__alt_mem_onchip_memory2_0+0xfc0000b0>
 400255c:	d8803817 	ldw	r2,224(sp)
 4002560:	d9003417 	ldw	r4,208(sp)
 4002564:	d9403817 	ldw	r5,224(sp)
 4002568:	1887883a 	add	r3,r3,r2
 400256c:	d8801f17 	ldw	r2,124(sp)
 4002570:	41000015 	stw	r4,0(r8)
 4002574:	41400115 	stw	r5,4(r8)
 4002578:	10800044 	addi	r2,r2,1
 400257c:	d8c02015 	stw	r3,128(sp)
 4002580:	d8801f15 	stw	r2,124(sp)
 4002584:	010001c4 	movi	r4,7
 4002588:	2082af16 	blt	r4,r2,4003048 <___svfprintf_internal_r+0x18e8>
 400258c:	42000204 	addi	r8,r8,8
 4002590:	d8803317 	ldw	r2,204(sp)
 4002594:	143fffc4 	addi	r16,r2,-1
 4002598:	043ec50e 	bge	zero,r16,40020b0 <__alt_mem_onchip_memory2_0+0xfc0000b0>
 400259c:	04400404 	movi	r17,16
 40025a0:	d8801f17 	ldw	r2,124(sp)
 40025a4:	8c00860e 	bge	r17,r16,40027c0 <___svfprintf_internal_r+0x1060>
 40025a8:	014100b4 	movhi	r5,1026
 40025ac:	2972d284 	addi	r5,r5,-13494
 40025b0:	d9402b15 	stw	r5,172(sp)
 40025b4:	058001c4 	movi	r22,7
 40025b8:	dd002c17 	ldw	r20,176(sp)
 40025bc:	00000306 	br	40025cc <___svfprintf_internal_r+0xe6c>
 40025c0:	42000204 	addi	r8,r8,8
 40025c4:	843ffc04 	addi	r16,r16,-16
 40025c8:	8c00800e 	bge	r17,r16,40027cc <___svfprintf_internal_r+0x106c>
 40025cc:	18c00404 	addi	r3,r3,16
 40025d0:	10800044 	addi	r2,r2,1
 40025d4:	45400015 	stw	r21,0(r8)
 40025d8:	44400115 	stw	r17,4(r8)
 40025dc:	d8c02015 	stw	r3,128(sp)
 40025e0:	d8801f15 	stw	r2,124(sp)
 40025e4:	b0bff60e 	bge	r22,r2,40025c0 <__alt_mem_onchip_memory2_0+0xfc0005c0>
 40025e8:	d9801e04 	addi	r6,sp,120
 40025ec:	a00b883a 	mov	r5,r20
 40025f0:	9809883a 	mov	r4,r19
 40025f4:	400ae380 	call	400ae38 <__ssprint_r>
 40025f8:	103d3e1e 	bne	r2,zero,4001af4 <__alt_mem_onchip_memory2_0+0xfbfffaf4>
 40025fc:	d8c02017 	ldw	r3,128(sp)
 4002600:	d8801f17 	ldw	r2,124(sp)
 4002604:	da000404 	addi	r8,sp,16
 4002608:	003fee06 	br	40025c4 <__alt_mem_onchip_memory2_0+0xfc0005c4>
 400260c:	d9403117 	ldw	r5,196(sp)
 4002610:	d8802a17 	ldw	r2,168(sp)
 4002614:	28adc83a 	sub	r22,r5,r2
 4002618:	05be650e 	bge	zero,r22,4001fb0 <__alt_mem_onchip_memory2_0+0xfbffffb0>
 400261c:	07000404 	movi	fp,16
 4002620:	d8801f17 	ldw	r2,124(sp)
 4002624:	e583a20e 	bge	fp,r22,40034b0 <___svfprintf_internal_r+0x1d50>
 4002628:	014100b4 	movhi	r5,1026
 400262c:	2972d284 	addi	r5,r5,-13494
 4002630:	dc403015 	stw	r17,192(sp)
 4002634:	d9402b15 	stw	r5,172(sp)
 4002638:	b023883a 	mov	r17,r22
 400263c:	050001c4 	movi	r20,7
 4002640:	902d883a 	mov	r22,r18
 4002644:	8025883a 	mov	r18,r16
 4002648:	dc002c17 	ldw	r16,176(sp)
 400264c:	00000306 	br	400265c <___svfprintf_internal_r+0xefc>
 4002650:	8c7ffc04 	addi	r17,r17,-16
 4002654:	42000204 	addi	r8,r8,8
 4002658:	e440110e 	bge	fp,r17,40026a0 <___svfprintf_internal_r+0xf40>
 400265c:	18c00404 	addi	r3,r3,16
 4002660:	10800044 	addi	r2,r2,1
 4002664:	45400015 	stw	r21,0(r8)
 4002668:	47000115 	stw	fp,4(r8)
 400266c:	d8c02015 	stw	r3,128(sp)
 4002670:	d8801f15 	stw	r2,124(sp)
 4002674:	a0bff60e 	bge	r20,r2,4002650 <__alt_mem_onchip_memory2_0+0xfc000650>
 4002678:	d9801e04 	addi	r6,sp,120
 400267c:	800b883a 	mov	r5,r16
 4002680:	9809883a 	mov	r4,r19
 4002684:	400ae380 	call	400ae38 <__ssprint_r>
 4002688:	103d1a1e 	bne	r2,zero,4001af4 <__alt_mem_onchip_memory2_0+0xfbfffaf4>
 400268c:	8c7ffc04 	addi	r17,r17,-16
 4002690:	d8c02017 	ldw	r3,128(sp)
 4002694:	d8801f17 	ldw	r2,124(sp)
 4002698:	da000404 	addi	r8,sp,16
 400269c:	e47fef16 	blt	fp,r17,400265c <__alt_mem_onchip_memory2_0+0xfc00065c>
 40026a0:	9021883a 	mov	r16,r18
 40026a4:	b025883a 	mov	r18,r22
 40026a8:	882d883a 	mov	r22,r17
 40026ac:	dc403017 	ldw	r17,192(sp)
 40026b0:	d9002b17 	ldw	r4,172(sp)
 40026b4:	1d87883a 	add	r3,r3,r22
 40026b8:	10800044 	addi	r2,r2,1
 40026bc:	41000015 	stw	r4,0(r8)
 40026c0:	45800115 	stw	r22,4(r8)
 40026c4:	d8c02015 	stw	r3,128(sp)
 40026c8:	d8801f15 	stw	r2,124(sp)
 40026cc:	010001c4 	movi	r4,7
 40026d0:	20819a16 	blt	r4,r2,4002d3c <___svfprintf_internal_r+0x15dc>
 40026d4:	42000204 	addi	r8,r8,8
 40026d8:	003e3506 	br	4001fb0 <__alt_mem_onchip_memory2_0+0xfbffffb0>
 40026dc:	d9403317 	ldw	r5,204(sp)
 40026e0:	00800044 	movi	r2,1
 40026e4:	18c00044 	addi	r3,r3,1
 40026e8:	1141710e 	bge	r2,r5,4002cb0 <___svfprintf_internal_r+0x1550>
 40026ec:	dc401f17 	ldw	r17,124(sp)
 40026f0:	00800044 	movi	r2,1
 40026f4:	40800115 	stw	r2,4(r8)
 40026f8:	8c400044 	addi	r17,r17,1
 40026fc:	44000015 	stw	r16,0(r8)
 4002700:	d8c02015 	stw	r3,128(sp)
 4002704:	dc401f15 	stw	r17,124(sp)
 4002708:	008001c4 	movi	r2,7
 400270c:	14417416 	blt	r2,r17,4002ce0 <___svfprintf_internal_r+0x1580>
 4002710:	42000204 	addi	r8,r8,8
 4002714:	d8803817 	ldw	r2,224(sp)
 4002718:	d9003417 	ldw	r4,208(sp)
 400271c:	8c400044 	addi	r17,r17,1
 4002720:	10c7883a 	add	r3,r2,r3
 4002724:	40800115 	stw	r2,4(r8)
 4002728:	41000015 	stw	r4,0(r8)
 400272c:	d8c02015 	stw	r3,128(sp)
 4002730:	dc401f15 	stw	r17,124(sp)
 4002734:	008001c4 	movi	r2,7
 4002738:	14417216 	blt	r2,r17,4002d04 <___svfprintf_internal_r+0x15a4>
 400273c:	45800204 	addi	r22,r8,8
 4002740:	d9003617 	ldw	r4,216(sp)
 4002744:	d9403717 	ldw	r5,220(sp)
 4002748:	000d883a 	mov	r6,zero
 400274c:	000f883a 	mov	r7,zero
 4002750:	d8c03d15 	stw	r3,244(sp)
 4002754:	400fe640 	call	400fe64 <__eqdf2>
 4002758:	d8c03d17 	ldw	r3,244(sp)
 400275c:	1000b326 	beq	r2,zero,4002a2c <___svfprintf_internal_r+0x12cc>
 4002760:	d9403317 	ldw	r5,204(sp)
 4002764:	84000044 	addi	r16,r16,1
 4002768:	8c400044 	addi	r17,r17,1
 400276c:	28bfffc4 	addi	r2,r5,-1
 4002770:	1887883a 	add	r3,r3,r2
 4002774:	b0800115 	stw	r2,4(r22)
 4002778:	b4000015 	stw	r16,0(r22)
 400277c:	d8c02015 	stw	r3,128(sp)
 4002780:	dc401f15 	stw	r17,124(sp)
 4002784:	008001c4 	movi	r2,7
 4002788:	1440d216 	blt	r2,r17,4002ad4 <___svfprintf_internal_r+0x1374>
 400278c:	b5800204 	addi	r22,r22,8
 4002790:	d9003b17 	ldw	r4,236(sp)
 4002794:	df0022c4 	addi	fp,sp,139
 4002798:	8c400044 	addi	r17,r17,1
 400279c:	20c7883a 	add	r3,r4,r3
 40027a0:	b7000015 	stw	fp,0(r22)
 40027a4:	b1000115 	stw	r4,4(r22)
 40027a8:	d8c02015 	stw	r3,128(sp)
 40027ac:	dc401f15 	stw	r17,124(sp)
 40027b0:	008001c4 	movi	r2,7
 40027b4:	14400e16 	blt	r2,r17,40027f0 <___svfprintf_internal_r+0x1090>
 40027b8:	b2000204 	addi	r8,r22,8
 40027bc:	003e3c06 	br	40020b0 <__alt_mem_onchip_memory2_0+0xfc0000b0>
 40027c0:	010100b4 	movhi	r4,1026
 40027c4:	2132d284 	addi	r4,r4,-13494
 40027c8:	d9002b15 	stw	r4,172(sp)
 40027cc:	d9002b17 	ldw	r4,172(sp)
 40027d0:	1c07883a 	add	r3,r3,r16
 40027d4:	44000115 	stw	r16,4(r8)
 40027d8:	41000015 	stw	r4,0(r8)
 40027dc:	10800044 	addi	r2,r2,1
 40027e0:	d8c02015 	stw	r3,128(sp)
 40027e4:	d8801f15 	stw	r2,124(sp)
 40027e8:	010001c4 	movi	r4,7
 40027ec:	20be2f0e 	bge	r4,r2,40020ac <__alt_mem_onchip_memory2_0+0xfc0000ac>
 40027f0:	d9402c17 	ldw	r5,176(sp)
 40027f4:	d9801e04 	addi	r6,sp,120
 40027f8:	9809883a 	mov	r4,r19
 40027fc:	400ae380 	call	400ae38 <__ssprint_r>
 4002800:	103cbc1e 	bne	r2,zero,4001af4 <__alt_mem_onchip_memory2_0+0xfbfffaf4>
 4002804:	d8c02017 	ldw	r3,128(sp)
 4002808:	da000404 	addi	r8,sp,16
 400280c:	003e2806 	br	40020b0 <__alt_mem_onchip_memory2_0+0xfc0000b0>
 4002810:	d9402c17 	ldw	r5,176(sp)
 4002814:	d9801e04 	addi	r6,sp,120
 4002818:	9809883a 	mov	r4,r19
 400281c:	400ae380 	call	400ae38 <__ssprint_r>
 4002820:	103e5f26 	beq	r2,zero,40021a0 <__alt_mem_onchip_memory2_0+0xfc0001a0>
 4002824:	003cb306 	br	4001af4 <__alt_mem_onchip_memory2_0+0xfbfffaf4>
 4002828:	d9402c17 	ldw	r5,176(sp)
 400282c:	d9801e04 	addi	r6,sp,120
 4002830:	9809883a 	mov	r4,r19
 4002834:	400ae380 	call	400ae38 <__ssprint_r>
 4002838:	103cae1e 	bne	r2,zero,4001af4 <__alt_mem_onchip_memory2_0+0xfbfffaf4>
 400283c:	d8c02017 	ldw	r3,128(sp)
 4002840:	da000404 	addi	r8,sp,16
 4002844:	003e0d06 	br	400207c <__alt_mem_onchip_memory2_0+0xfc00007c>
 4002848:	d9402c17 	ldw	r5,176(sp)
 400284c:	d9801e04 	addi	r6,sp,120
 4002850:	9809883a 	mov	r4,r19
 4002854:	400ae380 	call	400ae38 <__ssprint_r>
 4002858:	103ca61e 	bne	r2,zero,4001af4 <__alt_mem_onchip_memory2_0+0xfbfffaf4>
 400285c:	d8c02017 	ldw	r3,128(sp)
 4002860:	da000404 	addi	r8,sp,16
 4002864:	003dc106 	br	4001f6c <__alt_mem_onchip_memory2_0+0xfbffff6c>
 4002868:	d9402c17 	ldw	r5,176(sp)
 400286c:	d9801e04 	addi	r6,sp,120
 4002870:	9809883a 	mov	r4,r19
 4002874:	400ae380 	call	400ae38 <__ssprint_r>
 4002878:	103c9e1e 	bne	r2,zero,4001af4 <__alt_mem_onchip_memory2_0+0xfbfffaf4>
 400287c:	d8c02017 	ldw	r3,128(sp)
 4002880:	da000404 	addi	r8,sp,16
 4002884:	003dc706 	br	4001fa4 <__alt_mem_onchip_memory2_0+0xfbffffa4>
 4002888:	d8802917 	ldw	r2,164(sp)
 400288c:	d8002785 	stb	zero,158(sp)
 4002890:	103f0816 	blt	r2,zero,40024b4 <__alt_mem_onchip_memory2_0+0xfc0004b4>
 4002894:	00ffdfc4 	movi	r3,-129
 4002898:	a584b03a 	or	r2,r20,r22
 400289c:	90e4703a 	and	r18,r18,r3
 40028a0:	103c8126 	beq	r2,zero,4001aa8 <__alt_mem_onchip_memory2_0+0xfbfffaa8>
 40028a4:	0039883a 	mov	fp,zero
 40028a8:	003e7606 	br	4002284 <__alt_mem_onchip_memory2_0+0xfc000284>
 40028ac:	9080040c 	andi	r2,r18,16
 40028b0:	10013d26 	beq	r2,zero,4002da8 <___svfprintf_internal_r+0x1648>
 40028b4:	d9002d17 	ldw	r4,180(sp)
 40028b8:	d9402917 	ldw	r5,164(sp)
 40028bc:	d8002785 	stb	zero,158(sp)
 40028c0:	20800104 	addi	r2,r4,4
 40028c4:	25000017 	ldw	r20,0(r4)
 40028c8:	002d883a 	mov	r22,zero
 40028cc:	28013f16 	blt	r5,zero,4002dcc <___svfprintf_internal_r+0x166c>
 40028d0:	00ffdfc4 	movi	r3,-129
 40028d4:	d8802d15 	stw	r2,180(sp)
 40028d8:	90e4703a 	and	r18,r18,r3
 40028dc:	a03d2b26 	beq	r20,zero,4001d8c <__alt_mem_onchip_memory2_0+0xfbfffd8c>
 40028e0:	0039883a 	mov	fp,zero
 40028e4:	003d2e06 	br	4001da0 <__alt_mem_onchip_memory2_0+0xfbfffda0>
 40028e8:	dc402617 	ldw	r17,152(sp)
 40028ec:	0441830e 	bge	zero,r17,4002efc <___svfprintf_internal_r+0x179c>
 40028f0:	dc403217 	ldw	r17,200(sp)
 40028f4:	d8803317 	ldw	r2,204(sp)
 40028f8:	1440010e 	bge	r2,r17,4002900 <___svfprintf_internal_r+0x11a0>
 40028fc:	1023883a 	mov	r17,r2
 4002900:	04400a0e 	bge	zero,r17,400292c <___svfprintf_internal_r+0x11cc>
 4002904:	d8801f17 	ldw	r2,124(sp)
 4002908:	1c47883a 	add	r3,r3,r17
 400290c:	44000015 	stw	r16,0(r8)
 4002910:	10800044 	addi	r2,r2,1
 4002914:	44400115 	stw	r17,4(r8)
 4002918:	d8c02015 	stw	r3,128(sp)
 400291c:	d8801f15 	stw	r2,124(sp)
 4002920:	010001c4 	movi	r4,7
 4002924:	20827516 	blt	r4,r2,40032fc <___svfprintf_internal_r+0x1b9c>
 4002928:	42000204 	addi	r8,r8,8
 400292c:	88027b16 	blt	r17,zero,400331c <___svfprintf_internal_r+0x1bbc>
 4002930:	d9003217 	ldw	r4,200(sp)
 4002934:	2463c83a 	sub	r17,r4,r17
 4002938:	0440990e 	bge	zero,r17,4002ba0 <___svfprintf_internal_r+0x1440>
 400293c:	05800404 	movi	r22,16
 4002940:	d8801f17 	ldw	r2,124(sp)
 4002944:	b441530e 	bge	r22,r17,4002e94 <___svfprintf_internal_r+0x1734>
 4002948:	010100b4 	movhi	r4,1026
 400294c:	2132d284 	addi	r4,r4,-13494
 4002950:	d9002b15 	stw	r4,172(sp)
 4002954:	070001c4 	movi	fp,7
 4002958:	dd002c17 	ldw	r20,176(sp)
 400295c:	00000306 	br	400296c <___svfprintf_internal_r+0x120c>
 4002960:	42000204 	addi	r8,r8,8
 4002964:	8c7ffc04 	addi	r17,r17,-16
 4002968:	b4414d0e 	bge	r22,r17,4002ea0 <___svfprintf_internal_r+0x1740>
 400296c:	18c00404 	addi	r3,r3,16
 4002970:	10800044 	addi	r2,r2,1
 4002974:	45400015 	stw	r21,0(r8)
 4002978:	45800115 	stw	r22,4(r8)
 400297c:	d8c02015 	stw	r3,128(sp)
 4002980:	d8801f15 	stw	r2,124(sp)
 4002984:	e0bff60e 	bge	fp,r2,4002960 <__alt_mem_onchip_memory2_0+0xfc000960>
 4002988:	d9801e04 	addi	r6,sp,120
 400298c:	a00b883a 	mov	r5,r20
 4002990:	9809883a 	mov	r4,r19
 4002994:	400ae380 	call	400ae38 <__ssprint_r>
 4002998:	103c561e 	bne	r2,zero,4001af4 <__alt_mem_onchip_memory2_0+0xfbfffaf4>
 400299c:	d8c02017 	ldw	r3,128(sp)
 40029a0:	d8801f17 	ldw	r2,124(sp)
 40029a4:	da000404 	addi	r8,sp,16
 40029a8:	003fee06 	br	4002964 <__alt_mem_onchip_memory2_0+0xfc000964>
 40029ac:	d9402c17 	ldw	r5,176(sp)
 40029b0:	d9801e04 	addi	r6,sp,120
 40029b4:	9809883a 	mov	r4,r19
 40029b8:	400ae380 	call	400ae38 <__ssprint_r>
 40029bc:	103c4d1e 	bne	r2,zero,4001af4 <__alt_mem_onchip_memory2_0+0xfbfffaf4>
 40029c0:	d8c02017 	ldw	r3,128(sp)
 40029c4:	df002787 	ldb	fp,158(sp)
 40029c8:	da000404 	addi	r8,sp,16
 40029cc:	003d5a06 	br	4001f38 <__alt_mem_onchip_memory2_0+0xfbffff38>
 40029d0:	9080040c 	andi	r2,r18,16
 40029d4:	10005c26 	beq	r2,zero,4002b48 <___svfprintf_internal_r+0x13e8>
 40029d8:	d9402d17 	ldw	r5,180(sp)
 40029dc:	d8c02917 	ldw	r3,164(sp)
 40029e0:	d8002785 	stb	zero,158(sp)
 40029e4:	28800104 	addi	r2,r5,4
 40029e8:	2d000017 	ldw	r20,0(r5)
 40029ec:	002d883a 	mov	r22,zero
 40029f0:	18005e16 	blt	r3,zero,4002b6c <___svfprintf_internal_r+0x140c>
 40029f4:	00ffdfc4 	movi	r3,-129
 40029f8:	d8802d15 	stw	r2,180(sp)
 40029fc:	90e4703a 	and	r18,r18,r3
 4002a00:	0039883a 	mov	fp,zero
 4002a04:	a03dfe26 	beq	r20,zero,4002200 <__alt_mem_onchip_memory2_0+0xfc000200>
 4002a08:	00800244 	movi	r2,9
 4002a0c:	153cb336 	bltu	r2,r20,4001cdc <__alt_mem_onchip_memory2_0+0xfbfffcdc>
 4002a10:	a5000c04 	addi	r20,r20,48
 4002a14:	dc001dc4 	addi	r16,sp,119
 4002a18:	dd001dc5 	stb	r20,119(sp)
 4002a1c:	d8c02817 	ldw	r3,160(sp)
 4002a20:	1c07c83a 	sub	r3,r3,r16
 4002a24:	d8c02e15 	stw	r3,184(sp)
 4002a28:	003cf506 	br	4001e00 <__alt_mem_onchip_memory2_0+0xfbfffe00>
 4002a2c:	d8803317 	ldw	r2,204(sp)
 4002a30:	143fffc4 	addi	r16,r2,-1
 4002a34:	043f560e 	bge	zero,r16,4002790 <__alt_mem_onchip_memory2_0+0xfc000790>
 4002a38:	07000404 	movi	fp,16
 4002a3c:	e403530e 	bge	fp,r16,400378c <___svfprintf_internal_r+0x202c>
 4002a40:	014100b4 	movhi	r5,1026
 4002a44:	2972d284 	addi	r5,r5,-13494
 4002a48:	d9402b15 	stw	r5,172(sp)
 4002a4c:	01c001c4 	movi	r7,7
 4002a50:	dd002c17 	ldw	r20,176(sp)
 4002a54:	00000306 	br	4002a64 <___svfprintf_internal_r+0x1304>
 4002a58:	843ffc04 	addi	r16,r16,-16
 4002a5c:	b5800204 	addi	r22,r22,8
 4002a60:	e400130e 	bge	fp,r16,4002ab0 <___svfprintf_internal_r+0x1350>
 4002a64:	18c00404 	addi	r3,r3,16
 4002a68:	8c400044 	addi	r17,r17,1
 4002a6c:	b5400015 	stw	r21,0(r22)
 4002a70:	b7000115 	stw	fp,4(r22)
 4002a74:	d8c02015 	stw	r3,128(sp)
 4002a78:	dc401f15 	stw	r17,124(sp)
 4002a7c:	3c7ff60e 	bge	r7,r17,4002a58 <__alt_mem_onchip_memory2_0+0xfc000a58>
 4002a80:	d9801e04 	addi	r6,sp,120
 4002a84:	a00b883a 	mov	r5,r20
 4002a88:	9809883a 	mov	r4,r19
 4002a8c:	d9c03d15 	stw	r7,244(sp)
 4002a90:	400ae380 	call	400ae38 <__ssprint_r>
 4002a94:	d9c03d17 	ldw	r7,244(sp)
 4002a98:	103c161e 	bne	r2,zero,4001af4 <__alt_mem_onchip_memory2_0+0xfbfffaf4>
 4002a9c:	843ffc04 	addi	r16,r16,-16
 4002aa0:	d8c02017 	ldw	r3,128(sp)
 4002aa4:	dc401f17 	ldw	r17,124(sp)
 4002aa8:	dd800404 	addi	r22,sp,16
 4002aac:	e43fed16 	blt	fp,r16,4002a64 <__alt_mem_onchip_memory2_0+0xfc000a64>
 4002ab0:	d8802b17 	ldw	r2,172(sp)
 4002ab4:	1c07883a 	add	r3,r3,r16
 4002ab8:	8c400044 	addi	r17,r17,1
 4002abc:	b0800015 	stw	r2,0(r22)
 4002ac0:	b4000115 	stw	r16,4(r22)
 4002ac4:	d8c02015 	stw	r3,128(sp)
 4002ac8:	dc401f15 	stw	r17,124(sp)
 4002acc:	008001c4 	movi	r2,7
 4002ad0:	147f2e0e 	bge	r2,r17,400278c <__alt_mem_onchip_memory2_0+0xfc00078c>
 4002ad4:	d9402c17 	ldw	r5,176(sp)
 4002ad8:	d9801e04 	addi	r6,sp,120
 4002adc:	9809883a 	mov	r4,r19
 4002ae0:	400ae380 	call	400ae38 <__ssprint_r>
 4002ae4:	103c031e 	bne	r2,zero,4001af4 <__alt_mem_onchip_memory2_0+0xfbfffaf4>
 4002ae8:	d8c02017 	ldw	r3,128(sp)
 4002aec:	dc401f17 	ldw	r17,124(sp)
 4002af0:	dd800404 	addi	r22,sp,16
 4002af4:	003f2606 	br	4002790 <__alt_mem_onchip_memory2_0+0xfc000790>
 4002af8:	9080040c 	andi	r2,r18,16
 4002afc:	1000c326 	beq	r2,zero,4002e0c <___svfprintf_internal_r+0x16ac>
 4002b00:	d8802d17 	ldw	r2,180(sp)
 4002b04:	15000017 	ldw	r20,0(r2)
 4002b08:	10800104 	addi	r2,r2,4
 4002b0c:	d8802d15 	stw	r2,180(sp)
 4002b10:	a02dd7fa 	srai	r22,r20,31
 4002b14:	b005883a 	mov	r2,r22
 4002b18:	103c680e 	bge	r2,zero,4001cbc <__alt_mem_onchip_memory2_0+0xfbfffcbc>
 4002b1c:	0529c83a 	sub	r20,zero,r20
 4002b20:	a004c03a 	cmpne	r2,r20,zero
 4002b24:	05adc83a 	sub	r22,zero,r22
 4002b28:	b0adc83a 	sub	r22,r22,r2
 4002b2c:	d8802917 	ldw	r2,164(sp)
 4002b30:	07000b44 	movi	fp,45
 4002b34:	df002785 	stb	fp,158(sp)
 4002b38:	10022e16 	blt	r2,zero,40033f4 <___svfprintf_internal_r+0x1c94>
 4002b3c:	00bfdfc4 	movi	r2,-129
 4002b40:	90a4703a 	and	r18,r18,r2
 4002b44:	003c6406 	br	4001cd8 <__alt_mem_onchip_memory2_0+0xfbfffcd8>
 4002b48:	9080100c 	andi	r2,r18,64
 4002b4c:	d8002785 	stb	zero,158(sp)
 4002b50:	10012526 	beq	r2,zero,4002fe8 <___svfprintf_internal_r+0x1888>
 4002b54:	d9002d17 	ldw	r4,180(sp)
 4002b58:	d9402917 	ldw	r5,164(sp)
 4002b5c:	002d883a 	mov	r22,zero
 4002b60:	20800104 	addi	r2,r4,4
 4002b64:	2500000b 	ldhu	r20,0(r4)
 4002b68:	283fa20e 	bge	r5,zero,40029f4 <__alt_mem_onchip_memory2_0+0xfc0009f4>
 4002b6c:	d8802d15 	stw	r2,180(sp)
 4002b70:	0039883a 	mov	fp,zero
 4002b74:	a584b03a 	or	r2,r20,r22
 4002b78:	103c571e 	bne	r2,zero,4001cd8 <__alt_mem_onchip_memory2_0+0xfbfffcd8>
 4002b7c:	00800044 	movi	r2,1
 4002b80:	003e5006 	br	40024c4 <__alt_mem_onchip_memory2_0+0xfc0004c4>
 4002b84:	d9402c17 	ldw	r5,176(sp)
 4002b88:	d9801e04 	addi	r6,sp,120
 4002b8c:	9809883a 	mov	r4,r19
 4002b90:	400ae380 	call	400ae38 <__ssprint_r>
 4002b94:	103bd71e 	bne	r2,zero,4001af4 <__alt_mem_onchip_memory2_0+0xfbfffaf4>
 4002b98:	d8c02017 	ldw	r3,128(sp)
 4002b9c:	da000404 	addi	r8,sp,16
 4002ba0:	d9003217 	ldw	r4,200(sp)
 4002ba4:	d8802617 	ldw	r2,152(sp)
 4002ba8:	d9403317 	ldw	r5,204(sp)
 4002bac:	8123883a 	add	r17,r16,r4
 4002bb0:	11400216 	blt	r2,r5,4002bbc <___svfprintf_internal_r+0x145c>
 4002bb4:	9100004c 	andi	r4,r18,1
 4002bb8:	20000d26 	beq	r4,zero,4002bf0 <___svfprintf_internal_r+0x1490>
 4002bbc:	d9003817 	ldw	r4,224(sp)
 4002bc0:	d9403417 	ldw	r5,208(sp)
 4002bc4:	1907883a 	add	r3,r3,r4
 4002bc8:	d9001f17 	ldw	r4,124(sp)
 4002bcc:	41400015 	stw	r5,0(r8)
 4002bd0:	d9403817 	ldw	r5,224(sp)
 4002bd4:	21000044 	addi	r4,r4,1
 4002bd8:	d8c02015 	stw	r3,128(sp)
 4002bdc:	41400115 	stw	r5,4(r8)
 4002be0:	d9001f15 	stw	r4,124(sp)
 4002be4:	014001c4 	movi	r5,7
 4002be8:	2901dc16 	blt	r5,r4,400335c <___svfprintf_internal_r+0x1bfc>
 4002bec:	42000204 	addi	r8,r8,8
 4002bf0:	d9003317 	ldw	r4,204(sp)
 4002bf4:	8121883a 	add	r16,r16,r4
 4002bf8:	2085c83a 	sub	r2,r4,r2
 4002bfc:	8461c83a 	sub	r16,r16,r17
 4002c00:	1400010e 	bge	r2,r16,4002c08 <___svfprintf_internal_r+0x14a8>
 4002c04:	1021883a 	mov	r16,r2
 4002c08:	04000a0e 	bge	zero,r16,4002c34 <___svfprintf_internal_r+0x14d4>
 4002c0c:	d9001f17 	ldw	r4,124(sp)
 4002c10:	1c07883a 	add	r3,r3,r16
 4002c14:	44400015 	stw	r17,0(r8)
 4002c18:	21000044 	addi	r4,r4,1
 4002c1c:	44000115 	stw	r16,4(r8)
 4002c20:	d8c02015 	stw	r3,128(sp)
 4002c24:	d9001f15 	stw	r4,124(sp)
 4002c28:	014001c4 	movi	r5,7
 4002c2c:	2901e616 	blt	r5,r4,40033c8 <___svfprintf_internal_r+0x1c68>
 4002c30:	42000204 	addi	r8,r8,8
 4002c34:	8001f616 	blt	r16,zero,4003410 <___svfprintf_internal_r+0x1cb0>
 4002c38:	1421c83a 	sub	r16,r2,r16
 4002c3c:	043d1c0e 	bge	zero,r16,40020b0 <__alt_mem_onchip_memory2_0+0xfc0000b0>
 4002c40:	04400404 	movi	r17,16
 4002c44:	d8801f17 	ldw	r2,124(sp)
 4002c48:	8c3edd0e 	bge	r17,r16,40027c0 <__alt_mem_onchip_memory2_0+0xfc0007c0>
 4002c4c:	014100b4 	movhi	r5,1026
 4002c50:	2972d284 	addi	r5,r5,-13494
 4002c54:	d9402b15 	stw	r5,172(sp)
 4002c58:	058001c4 	movi	r22,7
 4002c5c:	dd002c17 	ldw	r20,176(sp)
 4002c60:	00000306 	br	4002c70 <___svfprintf_internal_r+0x1510>
 4002c64:	42000204 	addi	r8,r8,8
 4002c68:	843ffc04 	addi	r16,r16,-16
 4002c6c:	8c3ed70e 	bge	r17,r16,40027cc <__alt_mem_onchip_memory2_0+0xfc0007cc>
 4002c70:	18c00404 	addi	r3,r3,16
 4002c74:	10800044 	addi	r2,r2,1
 4002c78:	45400015 	stw	r21,0(r8)
 4002c7c:	44400115 	stw	r17,4(r8)
 4002c80:	d8c02015 	stw	r3,128(sp)
 4002c84:	d8801f15 	stw	r2,124(sp)
 4002c88:	b0bff60e 	bge	r22,r2,4002c64 <__alt_mem_onchip_memory2_0+0xfc000c64>
 4002c8c:	d9801e04 	addi	r6,sp,120
 4002c90:	a00b883a 	mov	r5,r20
 4002c94:	9809883a 	mov	r4,r19
 4002c98:	400ae380 	call	400ae38 <__ssprint_r>
 4002c9c:	103b951e 	bne	r2,zero,4001af4 <__alt_mem_onchip_memory2_0+0xfbfffaf4>
 4002ca0:	d8c02017 	ldw	r3,128(sp)
 4002ca4:	d8801f17 	ldw	r2,124(sp)
 4002ca8:	da000404 	addi	r8,sp,16
 4002cac:	003fee06 	br	4002c68 <__alt_mem_onchip_memory2_0+0xfc000c68>
 4002cb0:	9088703a 	and	r4,r18,r2
 4002cb4:	203e8d1e 	bne	r4,zero,40026ec <__alt_mem_onchip_memory2_0+0xfc0006ec>
 4002cb8:	dc401f17 	ldw	r17,124(sp)
 4002cbc:	40800115 	stw	r2,4(r8)
 4002cc0:	44000015 	stw	r16,0(r8)
 4002cc4:	8c400044 	addi	r17,r17,1
 4002cc8:	d8c02015 	stw	r3,128(sp)
 4002ccc:	dc401f15 	stw	r17,124(sp)
 4002cd0:	008001c4 	movi	r2,7
 4002cd4:	147f7f16 	blt	r2,r17,4002ad4 <__alt_mem_onchip_memory2_0+0xfc000ad4>
 4002cd8:	45800204 	addi	r22,r8,8
 4002cdc:	003eac06 	br	4002790 <__alt_mem_onchip_memory2_0+0xfc000790>
 4002ce0:	d9402c17 	ldw	r5,176(sp)
 4002ce4:	d9801e04 	addi	r6,sp,120
 4002ce8:	9809883a 	mov	r4,r19
 4002cec:	400ae380 	call	400ae38 <__ssprint_r>
 4002cf0:	103b801e 	bne	r2,zero,4001af4 <__alt_mem_onchip_memory2_0+0xfbfffaf4>
 4002cf4:	d8c02017 	ldw	r3,128(sp)
 4002cf8:	dc401f17 	ldw	r17,124(sp)
 4002cfc:	da000404 	addi	r8,sp,16
 4002d00:	003e8406 	br	4002714 <__alt_mem_onchip_memory2_0+0xfc000714>
 4002d04:	d9402c17 	ldw	r5,176(sp)
 4002d08:	d9801e04 	addi	r6,sp,120
 4002d0c:	9809883a 	mov	r4,r19
 4002d10:	400ae380 	call	400ae38 <__ssprint_r>
 4002d14:	103b771e 	bne	r2,zero,4001af4 <__alt_mem_onchip_memory2_0+0xfbfffaf4>
 4002d18:	d8c02017 	ldw	r3,128(sp)
 4002d1c:	dc401f17 	ldw	r17,124(sp)
 4002d20:	dd800404 	addi	r22,sp,16
 4002d24:	003e8606 	br	4002740 <__alt_mem_onchip_memory2_0+0xfc000740>
 4002d28:	0029883a 	mov	r20,zero
 4002d2c:	a5000c04 	addi	r20,r20,48
 4002d30:	dc001dc4 	addi	r16,sp,119
 4002d34:	dd001dc5 	stb	r20,119(sp)
 4002d38:	003f3806 	br	4002a1c <__alt_mem_onchip_memory2_0+0xfc000a1c>
 4002d3c:	d9402c17 	ldw	r5,176(sp)
 4002d40:	d9801e04 	addi	r6,sp,120
 4002d44:	9809883a 	mov	r4,r19
 4002d48:	400ae380 	call	400ae38 <__ssprint_r>
 4002d4c:	103b691e 	bne	r2,zero,4001af4 <__alt_mem_onchip_memory2_0+0xfbfffaf4>
 4002d50:	d8c02017 	ldw	r3,128(sp)
 4002d54:	da000404 	addi	r8,sp,16
 4002d58:	003c9506 	br	4001fb0 <__alt_mem_onchip_memory2_0+0xfbffffb0>
 4002d5c:	d9003617 	ldw	r4,216(sp)
 4002d60:	d9403717 	ldw	r5,220(sp)
 4002d64:	da003e15 	stw	r8,248(sp)
 4002d68:	400ab580 	call	400ab58 <__fpclassifyd>
 4002d6c:	da003e17 	ldw	r8,248(sp)
 4002d70:	1000bd1e 	bne	r2,zero,4003068 <___svfprintf_internal_r+0x1908>
 4002d74:	008011c4 	movi	r2,71
 4002d78:	14411e0e 	bge	r2,r17,40031f4 <___svfprintf_internal_r+0x1a94>
 4002d7c:	040100b4 	movhi	r16,1026
 4002d80:	8432c504 	addi	r16,r16,-13548
 4002d84:	00c000c4 	movi	r3,3
 4002d88:	00bfdfc4 	movi	r2,-129
 4002d8c:	d8c02a15 	stw	r3,168(sp)
 4002d90:	90a4703a 	and	r18,r18,r2
 4002d94:	df002783 	ldbu	fp,158(sp)
 4002d98:	d8c02e15 	stw	r3,184(sp)
 4002d9c:	d8002915 	stw	zero,164(sp)
 4002da0:	d8003215 	stw	zero,200(sp)
 4002da4:	003c1c06 	br	4001e18 <__alt_mem_onchip_memory2_0+0xfbfffe18>
 4002da8:	9080100c 	andi	r2,r18,64
 4002dac:	d8002785 	stb	zero,158(sp)
 4002db0:	10009426 	beq	r2,zero,4003004 <___svfprintf_internal_r+0x18a4>
 4002db4:	d8c02d17 	ldw	r3,180(sp)
 4002db8:	d9002917 	ldw	r4,164(sp)
 4002dbc:	002d883a 	mov	r22,zero
 4002dc0:	18800104 	addi	r2,r3,4
 4002dc4:	1d00000b 	ldhu	r20,0(r3)
 4002dc8:	203ec10e 	bge	r4,zero,40028d0 <__alt_mem_onchip_memory2_0+0xfc0008d0>
 4002dcc:	a586b03a 	or	r3,r20,r22
 4002dd0:	d8802d15 	stw	r2,180(sp)
 4002dd4:	183ec21e 	bne	r3,zero,40028e0 <__alt_mem_onchip_memory2_0+0xfc0008e0>
 4002dd8:	0039883a 	mov	fp,zero
 4002ddc:	0005883a 	mov	r2,zero
 4002de0:	003db806 	br	40024c4 <__alt_mem_onchip_memory2_0+0xfc0004c4>
 4002de4:	d8802d17 	ldw	r2,180(sp)
 4002de8:	d8c02d17 	ldw	r3,180(sp)
 4002dec:	d9002d17 	ldw	r4,180(sp)
 4002df0:	10800017 	ldw	r2,0(r2)
 4002df4:	18c00117 	ldw	r3,4(r3)
 4002df8:	21000204 	addi	r4,r4,8
 4002dfc:	d8803615 	stw	r2,216(sp)
 4002e00:	d8c03715 	stw	r3,220(sp)
 4002e04:	d9002d15 	stw	r4,180(sp)
 4002e08:	003b8206 	br	4001c14 <__alt_mem_onchip_memory2_0+0xfbfffc14>
 4002e0c:	9080100c 	andi	r2,r18,64
 4002e10:	10010726 	beq	r2,zero,4003230 <___svfprintf_internal_r+0x1ad0>
 4002e14:	d8c02d17 	ldw	r3,180(sp)
 4002e18:	1d00000f 	ldh	r20,0(r3)
 4002e1c:	18c00104 	addi	r3,r3,4
 4002e20:	d8c02d15 	stw	r3,180(sp)
 4002e24:	a02dd7fa 	srai	r22,r20,31
 4002e28:	b005883a 	mov	r2,r22
 4002e2c:	003ba206 	br	4001cb8 <__alt_mem_onchip_memory2_0+0xfbfffcb8>
 4002e30:	9080100c 	andi	r2,r18,64
 4002e34:	10010526 	beq	r2,zero,400324c <___svfprintf_internal_r+0x1aec>
 4002e38:	d9002d17 	ldw	r4,180(sp)
 4002e3c:	002d883a 	mov	r22,zero
 4002e40:	2500000b 	ldhu	r20,0(r4)
 4002e44:	21000104 	addi	r4,r4,4
 4002e48:	d9002d15 	stw	r4,180(sp)
 4002e4c:	003cfe06 	br	4002248 <__alt_mem_onchip_memory2_0+0xfc000248>
 4002e50:	bc400007 	ldb	r17,0(r23)
 4002e54:	003a9606 	br	40018b0 <__alt_mem_onchip_memory2_0+0xfbfff8b0>
 4002e58:	9080040c 	andi	r2,r18,16
 4002e5c:	10010126 	beq	r2,zero,4003264 <___svfprintf_internal_r+0x1b04>
 4002e60:	d9402d17 	ldw	r5,180(sp)
 4002e64:	d8c02f17 	ldw	r3,188(sp)
 4002e68:	28800017 	ldw	r2,0(r5)
 4002e6c:	29400104 	addi	r5,r5,4
 4002e70:	d9402d15 	stw	r5,180(sp)
 4002e74:	10c00015 	stw	r3,0(r2)
 4002e78:	003a6406 	br	400180c <__alt_mem_onchip_memory2_0+0xfbfff80c>
 4002e7c:	d9002917 	ldw	r4,164(sp)
 4002e80:	d8002785 	stb	zero,158(sp)
 4002e84:	203d8d16 	blt	r4,zero,40024bc <__alt_mem_onchip_memory2_0+0xfc0004bc>
 4002e88:	00bfdfc4 	movi	r2,-129
 4002e8c:	90a4703a 	and	r18,r18,r2
 4002e90:	003b0506 	br	4001aa8 <__alt_mem_onchip_memory2_0+0xfbfffaa8>
 4002e94:	014100b4 	movhi	r5,1026
 4002e98:	2972d284 	addi	r5,r5,-13494
 4002e9c:	d9402b15 	stw	r5,172(sp)
 4002ea0:	d9402b17 	ldw	r5,172(sp)
 4002ea4:	1c47883a 	add	r3,r3,r17
 4002ea8:	10800044 	addi	r2,r2,1
 4002eac:	41400015 	stw	r5,0(r8)
 4002eb0:	44400115 	stw	r17,4(r8)
 4002eb4:	d8c02015 	stw	r3,128(sp)
 4002eb8:	d8801f15 	stw	r2,124(sp)
 4002ebc:	010001c4 	movi	r4,7
 4002ec0:	20bf3016 	blt	r4,r2,4002b84 <__alt_mem_onchip_memory2_0+0xfc000b84>
 4002ec4:	42000204 	addi	r8,r8,8
 4002ec8:	003f3506 	br	4002ba0 <__alt_mem_onchip_memory2_0+0xfc000ba0>
 4002ecc:	010100b4 	movhi	r4,1026
 4002ed0:	2132d284 	addi	r4,r4,-13494
 4002ed4:	d9002b15 	stw	r4,172(sp)
 4002ed8:	003c5e06 	br	4002054 <__alt_mem_onchip_memory2_0+0xfc000054>
 4002edc:	d9402c17 	ldw	r5,176(sp)
 4002ee0:	d9801e04 	addi	r6,sp,120
 4002ee4:	9809883a 	mov	r4,r19
 4002ee8:	400ae380 	call	400ae38 <__ssprint_r>
 4002eec:	103b011e 	bne	r2,zero,4001af4 <__alt_mem_onchip_memory2_0+0xfbfffaf4>
 4002ef0:	d8c02017 	ldw	r3,128(sp)
 4002ef4:	da000404 	addi	r8,sp,16
 4002ef8:	003d9306 	br	4002548 <__alt_mem_onchip_memory2_0+0xfc000548>
 4002efc:	d8801f17 	ldw	r2,124(sp)
 4002f00:	014100b4 	movhi	r5,1026
 4002f04:	01000044 	movi	r4,1
 4002f08:	18c00044 	addi	r3,r3,1
 4002f0c:	10800044 	addi	r2,r2,1
 4002f10:	2972d204 	addi	r5,r5,-13496
 4002f14:	41000115 	stw	r4,4(r8)
 4002f18:	41400015 	stw	r5,0(r8)
 4002f1c:	d8c02015 	stw	r3,128(sp)
 4002f20:	d8801f15 	stw	r2,124(sp)
 4002f24:	010001c4 	movi	r4,7
 4002f28:	2080b516 	blt	r4,r2,4003200 <___svfprintf_internal_r+0x1aa0>
 4002f2c:	42000204 	addi	r8,r8,8
 4002f30:	8800041e 	bne	r17,zero,4002f44 <___svfprintf_internal_r+0x17e4>
 4002f34:	d8803317 	ldw	r2,204(sp)
 4002f38:	1000021e 	bne	r2,zero,4002f44 <___svfprintf_internal_r+0x17e4>
 4002f3c:	9080004c 	andi	r2,r18,1
 4002f40:	103c5b26 	beq	r2,zero,40020b0 <__alt_mem_onchip_memory2_0+0xfc0000b0>
 4002f44:	d9003817 	ldw	r4,224(sp)
 4002f48:	d8801f17 	ldw	r2,124(sp)
 4002f4c:	d9403417 	ldw	r5,208(sp)
 4002f50:	20c7883a 	add	r3,r4,r3
 4002f54:	10800044 	addi	r2,r2,1
 4002f58:	41000115 	stw	r4,4(r8)
 4002f5c:	41400015 	stw	r5,0(r8)
 4002f60:	d8c02015 	stw	r3,128(sp)
 4002f64:	d8801f15 	stw	r2,124(sp)
 4002f68:	010001c4 	movi	r4,7
 4002f6c:	20818016 	blt	r4,r2,4003570 <___svfprintf_internal_r+0x1e10>
 4002f70:	42000204 	addi	r8,r8,8
 4002f74:	0463c83a 	sub	r17,zero,r17
 4002f78:	0440cb0e 	bge	zero,r17,40032a8 <___svfprintf_internal_r+0x1b48>
 4002f7c:	05800404 	movi	r22,16
 4002f80:	b440e80e 	bge	r22,r17,4003324 <___svfprintf_internal_r+0x1bc4>
 4002f84:	014100b4 	movhi	r5,1026
 4002f88:	2972d284 	addi	r5,r5,-13494
 4002f8c:	d9402b15 	stw	r5,172(sp)
 4002f90:	070001c4 	movi	fp,7
 4002f94:	dd002c17 	ldw	r20,176(sp)
 4002f98:	00000306 	br	4002fa8 <___svfprintf_internal_r+0x1848>
 4002f9c:	42000204 	addi	r8,r8,8
 4002fa0:	8c7ffc04 	addi	r17,r17,-16
 4002fa4:	b440e20e 	bge	r22,r17,4003330 <___svfprintf_internal_r+0x1bd0>
 4002fa8:	18c00404 	addi	r3,r3,16
 4002fac:	10800044 	addi	r2,r2,1
 4002fb0:	45400015 	stw	r21,0(r8)
 4002fb4:	45800115 	stw	r22,4(r8)
 4002fb8:	d8c02015 	stw	r3,128(sp)
 4002fbc:	d8801f15 	stw	r2,124(sp)
 4002fc0:	e0bff60e 	bge	fp,r2,4002f9c <__alt_mem_onchip_memory2_0+0xfc000f9c>
 4002fc4:	d9801e04 	addi	r6,sp,120
 4002fc8:	a00b883a 	mov	r5,r20
 4002fcc:	9809883a 	mov	r4,r19
 4002fd0:	400ae380 	call	400ae38 <__ssprint_r>
 4002fd4:	103ac71e 	bne	r2,zero,4001af4 <__alt_mem_onchip_memory2_0+0xfbfffaf4>
 4002fd8:	d8c02017 	ldw	r3,128(sp)
 4002fdc:	d8801f17 	ldw	r2,124(sp)
 4002fe0:	da000404 	addi	r8,sp,16
 4002fe4:	003fee06 	br	4002fa0 <__alt_mem_onchip_memory2_0+0xfc000fa0>
 4002fe8:	d8c02d17 	ldw	r3,180(sp)
 4002fec:	d9002917 	ldw	r4,164(sp)
 4002ff0:	002d883a 	mov	r22,zero
 4002ff4:	18800104 	addi	r2,r3,4
 4002ff8:	1d000017 	ldw	r20,0(r3)
 4002ffc:	203e7d0e 	bge	r4,zero,40029f4 <__alt_mem_onchip_memory2_0+0xfc0009f4>
 4003000:	003eda06 	br	4002b6c <__alt_mem_onchip_memory2_0+0xfc000b6c>
 4003004:	d9402d17 	ldw	r5,180(sp)
 4003008:	d8c02917 	ldw	r3,164(sp)
 400300c:	002d883a 	mov	r22,zero
 4003010:	28800104 	addi	r2,r5,4
 4003014:	2d000017 	ldw	r20,0(r5)
 4003018:	183e2d0e 	bge	r3,zero,40028d0 <__alt_mem_onchip_memory2_0+0xfc0008d0>
 400301c:	003f6b06 	br	4002dcc <__alt_mem_onchip_memory2_0+0xfc000dcc>
 4003020:	d8c02d15 	stw	r3,180(sp)
 4003024:	0039883a 	mov	fp,zero
 4003028:	003ed206 	br	4002b74 <__alt_mem_onchip_memory2_0+0xfc000b74>
 400302c:	bc400043 	ldbu	r17,1(r23)
 4003030:	94800814 	ori	r18,r18,32
 4003034:	bdc00044 	addi	r23,r23,1
 4003038:	8c403fcc 	andi	r17,r17,255
 400303c:	8c40201c 	xori	r17,r17,128
 4003040:	8c7fe004 	addi	r17,r17,-128
 4003044:	003a1a06 	br	40018b0 <__alt_mem_onchip_memory2_0+0xfbfff8b0>
 4003048:	d9402c17 	ldw	r5,176(sp)
 400304c:	d9801e04 	addi	r6,sp,120
 4003050:	9809883a 	mov	r4,r19
 4003054:	400ae380 	call	400ae38 <__ssprint_r>
 4003058:	103aa61e 	bne	r2,zero,4001af4 <__alt_mem_onchip_memory2_0+0xfbfffaf4>
 400305c:	d8c02017 	ldw	r3,128(sp)
 4003060:	da000404 	addi	r8,sp,16
 4003064:	003d4a06 	br	4002590 <__alt_mem_onchip_memory2_0+0xfc000590>
 4003068:	d9002917 	ldw	r4,164(sp)
 400306c:	05bff7c4 	movi	r22,-33
 4003070:	00bfffc4 	movi	r2,-1
 4003074:	8dac703a 	and	r22,r17,r22
 4003078:	20806a26 	beq	r4,r2,4003224 <___svfprintf_internal_r+0x1ac4>
 400307c:	008011c4 	movi	r2,71
 4003080:	b0813726 	beq	r22,r2,4003560 <___svfprintf_internal_r+0x1e00>
 4003084:	d9003717 	ldw	r4,220(sp)
 4003088:	90c04014 	ori	r3,r18,256
 400308c:	d8c02b15 	stw	r3,172(sp)
 4003090:	20015d16 	blt	r4,zero,4003608 <___svfprintf_internal_r+0x1ea8>
 4003094:	dd003717 	ldw	r20,220(sp)
 4003098:	d8002a05 	stb	zero,168(sp)
 400309c:	00801984 	movi	r2,102
 40030a0:	88814026 	beq	r17,r2,40035a4 <___svfprintf_internal_r+0x1e44>
 40030a4:	00801184 	movi	r2,70
 40030a8:	88817126 	beq	r17,r2,4003670 <___svfprintf_internal_r+0x1f10>
 40030ac:	00801144 	movi	r2,69
 40030b0:	b0816226 	beq	r22,r2,400363c <___svfprintf_internal_r+0x1edc>
 40030b4:	d8c02917 	ldw	r3,164(sp)
 40030b8:	d8802104 	addi	r2,sp,132
 40030bc:	d8800315 	stw	r2,12(sp)
 40030c0:	d9403617 	ldw	r5,216(sp)
 40030c4:	d8802504 	addi	r2,sp,148
 40030c8:	d8800215 	stw	r2,8(sp)
 40030cc:	d8802604 	addi	r2,sp,152
 40030d0:	d8c00015 	stw	r3,0(sp)
 40030d4:	d8800115 	stw	r2,4(sp)
 40030d8:	01c00084 	movi	r7,2
 40030dc:	a00d883a 	mov	r6,r20
 40030e0:	9809883a 	mov	r4,r19
 40030e4:	d8c03d15 	stw	r3,244(sp)
 40030e8:	da003e15 	stw	r8,248(sp)
 40030ec:	4005f5c0 	call	4005f5c <_dtoa_r>
 40030f0:	1021883a 	mov	r16,r2
 40030f4:	008019c4 	movi	r2,103
 40030f8:	d8c03d17 	ldw	r3,244(sp)
 40030fc:	da003e17 	ldw	r8,248(sp)
 4003100:	8880e726 	beq	r17,r2,40034a0 <___svfprintf_internal_r+0x1d40>
 4003104:	008011c4 	movi	r2,71
 4003108:	8880d426 	beq	r17,r2,400345c <___svfprintf_internal_r+0x1cfc>
 400310c:	80f9883a 	add	fp,r16,r3
 4003110:	d9003617 	ldw	r4,216(sp)
 4003114:	000d883a 	mov	r6,zero
 4003118:	000f883a 	mov	r7,zero
 400311c:	a00b883a 	mov	r5,r20
 4003120:	da003e15 	stw	r8,248(sp)
 4003124:	400fe640 	call	400fe64 <__eqdf2>
 4003128:	da003e17 	ldw	r8,248(sp)
 400312c:	1000e426 	beq	r2,zero,40034c0 <___svfprintf_internal_r+0x1d60>
 4003130:	d8802117 	ldw	r2,132(sp)
 4003134:	1700062e 	bgeu	r2,fp,4003150 <___svfprintf_internal_r+0x19f0>
 4003138:	01000c04 	movi	r4,48
 400313c:	10c00044 	addi	r3,r2,1
 4003140:	d8c02115 	stw	r3,132(sp)
 4003144:	11000005 	stb	r4,0(r2)
 4003148:	d8802117 	ldw	r2,132(sp)
 400314c:	173ffb36 	bltu	r2,fp,400313c <__alt_mem_onchip_memory2_0+0xfc00113c>
 4003150:	1405c83a 	sub	r2,r2,r16
 4003154:	d8803315 	stw	r2,204(sp)
 4003158:	008011c4 	movi	r2,71
 400315c:	b080c526 	beq	r22,r2,4003474 <___svfprintf_internal_r+0x1d14>
 4003160:	00801944 	movi	r2,101
 4003164:	1441d90e 	bge	r2,r17,40038cc <___svfprintf_internal_r+0x216c>
 4003168:	d8c02617 	ldw	r3,152(sp)
 400316c:	00801984 	movi	r2,102
 4003170:	d8c03215 	stw	r3,200(sp)
 4003174:	88813426 	beq	r17,r2,4003648 <___svfprintf_internal_r+0x1ee8>
 4003178:	d8c03217 	ldw	r3,200(sp)
 400317c:	d9003317 	ldw	r4,204(sp)
 4003180:	19012516 	blt	r3,r4,4003618 <___svfprintf_internal_r+0x1eb8>
 4003184:	9480004c 	andi	r18,r18,1
 4003188:	9001841e 	bne	r18,zero,400379c <___svfprintf_internal_r+0x203c>
 400318c:	1805883a 	mov	r2,r3
 4003190:	1801cc16 	blt	r3,zero,40038c4 <___svfprintf_internal_r+0x2164>
 4003194:	d8c03217 	ldw	r3,200(sp)
 4003198:	044019c4 	movi	r17,103
 400319c:	d8c02e15 	stw	r3,184(sp)
 40031a0:	df002a07 	ldb	fp,168(sp)
 40031a4:	e000a61e 	bne	fp,zero,4003440 <___svfprintf_internal_r+0x1ce0>
 40031a8:	df002783 	ldbu	fp,158(sp)
 40031ac:	d8802a15 	stw	r2,168(sp)
 40031b0:	dc802b17 	ldw	r18,172(sp)
 40031b4:	d8002915 	stw	zero,164(sp)
 40031b8:	003b1706 	br	4001e18 <__alt_mem_onchip_memory2_0+0xfbfffe18>
 40031bc:	040100b4 	movhi	r16,1026
 40031c0:	8432c204 	addi	r16,r16,-13560
 40031c4:	003aa606 	br	4001c60 <__alt_mem_onchip_memory2_0+0xfbfffc60>
 40031c8:	d9003917 	ldw	r4,228(sp)
 40031cc:	04001004 	movi	r16,64
 40031d0:	800b883a 	mov	r5,r16
 40031d4:	400893c0 	call	400893c <_malloc_r>
 40031d8:	d9002c17 	ldw	r4,176(sp)
 40031dc:	20800015 	stw	r2,0(r4)
 40031e0:	20800415 	stw	r2,16(r4)
 40031e4:	1001cb26 	beq	r2,zero,4003914 <___svfprintf_internal_r+0x21b4>
 40031e8:	d8802c17 	ldw	r2,176(sp)
 40031ec:	14000515 	stw	r16,20(r2)
 40031f0:	00397606 	br	40017cc <__alt_mem_onchip_memory2_0+0xfbfff7cc>
 40031f4:	040100b4 	movhi	r16,1026
 40031f8:	8432c404 	addi	r16,r16,-13552
 40031fc:	003ee106 	br	4002d84 <__alt_mem_onchip_memory2_0+0xfc000d84>
 4003200:	d9402c17 	ldw	r5,176(sp)
 4003204:	d9801e04 	addi	r6,sp,120
 4003208:	9809883a 	mov	r4,r19
 400320c:	400ae380 	call	400ae38 <__ssprint_r>
 4003210:	103a381e 	bne	r2,zero,4001af4 <__alt_mem_onchip_memory2_0+0xfbfffaf4>
 4003214:	dc402617 	ldw	r17,152(sp)
 4003218:	d8c02017 	ldw	r3,128(sp)
 400321c:	da000404 	addi	r8,sp,16
 4003220:	003f4306 	br	4002f30 <__alt_mem_onchip_memory2_0+0xfc000f30>
 4003224:	01400184 	movi	r5,6
 4003228:	d9402915 	stw	r5,164(sp)
 400322c:	003f9506 	br	4003084 <__alt_mem_onchip_memory2_0+0xfc001084>
 4003230:	d9002d17 	ldw	r4,180(sp)
 4003234:	25000017 	ldw	r20,0(r4)
 4003238:	21000104 	addi	r4,r4,4
 400323c:	d9002d15 	stw	r4,180(sp)
 4003240:	a02dd7fa 	srai	r22,r20,31
 4003244:	b005883a 	mov	r2,r22
 4003248:	003a9b06 	br	4001cb8 <__alt_mem_onchip_memory2_0+0xfbfffcb8>
 400324c:	d9402d17 	ldw	r5,180(sp)
 4003250:	002d883a 	mov	r22,zero
 4003254:	2d000017 	ldw	r20,0(r5)
 4003258:	29400104 	addi	r5,r5,4
 400325c:	d9402d15 	stw	r5,180(sp)
 4003260:	003bf906 	br	4002248 <__alt_mem_onchip_memory2_0+0xfc000248>
 4003264:	9480100c 	andi	r18,r18,64
 4003268:	90006e26 	beq	r18,zero,4003424 <___svfprintf_internal_r+0x1cc4>
 400326c:	d9002d17 	ldw	r4,180(sp)
 4003270:	d9402f17 	ldw	r5,188(sp)
 4003274:	20800017 	ldw	r2,0(r4)
 4003278:	21000104 	addi	r4,r4,4
 400327c:	d9002d15 	stw	r4,180(sp)
 4003280:	1140000d 	sth	r5,0(r2)
 4003284:	00396106 	br	400180c <__alt_mem_onchip_memory2_0+0xfbfff80c>
 4003288:	d9402c17 	ldw	r5,176(sp)
 400328c:	d9801e04 	addi	r6,sp,120
 4003290:	9809883a 	mov	r4,r19
 4003294:	400ae380 	call	400ae38 <__ssprint_r>
 4003298:	103a161e 	bne	r2,zero,4001af4 <__alt_mem_onchip_memory2_0+0xfbfffaf4>
 400329c:	d8c02017 	ldw	r3,128(sp)
 40032a0:	d8801f17 	ldw	r2,124(sp)
 40032a4:	da000404 	addi	r8,sp,16
 40032a8:	d9403317 	ldw	r5,204(sp)
 40032ac:	10800044 	addi	r2,r2,1
 40032b0:	44000015 	stw	r16,0(r8)
 40032b4:	28c7883a 	add	r3,r5,r3
 40032b8:	003b7706 	br	4002098 <__alt_mem_onchip_memory2_0+0xfc000098>
 40032bc:	8009883a 	mov	r4,r16
 40032c0:	da003e15 	stw	r8,248(sp)
 40032c4:	40016c80 	call	40016c8 <strlen>
 40032c8:	d8802e15 	stw	r2,184(sp)
 40032cc:	da003e17 	ldw	r8,248(sp)
 40032d0:	103c280e 	bge	r2,zero,4002374 <__alt_mem_onchip_memory2_0+0xfc000374>
 40032d4:	0005883a 	mov	r2,zero
 40032d8:	003c2606 	br	4002374 <__alt_mem_onchip_memory2_0+0xfc000374>
 40032dc:	00bfffc4 	movi	r2,-1
 40032e0:	003a0906 	br	4001b08 <__alt_mem_onchip_memory2_0+0xfbfffb08>
 40032e4:	010100b4 	movhi	r4,1026
 40032e8:	2132d684 	addi	r4,r4,-13478
 40032ec:	d9003515 	stw	r4,212(sp)
 40032f0:	003b0606 	br	4001f0c <__alt_mem_onchip_memory2_0+0xfbffff0c>
 40032f4:	013fffc4 	movi	r4,-1
 40032f8:	003a2706 	br	4001b98 <__alt_mem_onchip_memory2_0+0xfbfffb98>
 40032fc:	d9402c17 	ldw	r5,176(sp)
 4003300:	d9801e04 	addi	r6,sp,120
 4003304:	9809883a 	mov	r4,r19
 4003308:	400ae380 	call	400ae38 <__ssprint_r>
 400330c:	1039f91e 	bne	r2,zero,4001af4 <__alt_mem_onchip_memory2_0+0xfbfffaf4>
 4003310:	d8c02017 	ldw	r3,128(sp)
 4003314:	da000404 	addi	r8,sp,16
 4003318:	003d8406 	br	400292c <__alt_mem_onchip_memory2_0+0xfc00092c>
 400331c:	0023883a 	mov	r17,zero
 4003320:	003d8306 	br	4002930 <__alt_mem_onchip_memory2_0+0xfc000930>
 4003324:	010100b4 	movhi	r4,1026
 4003328:	2132d284 	addi	r4,r4,-13494
 400332c:	d9002b15 	stw	r4,172(sp)
 4003330:	d9002b17 	ldw	r4,172(sp)
 4003334:	1c47883a 	add	r3,r3,r17
 4003338:	10800044 	addi	r2,r2,1
 400333c:	41000015 	stw	r4,0(r8)
 4003340:	44400115 	stw	r17,4(r8)
 4003344:	d8c02015 	stw	r3,128(sp)
 4003348:	d8801f15 	stw	r2,124(sp)
 400334c:	010001c4 	movi	r4,7
 4003350:	20bfcd16 	blt	r4,r2,4003288 <__alt_mem_onchip_memory2_0+0xfc001288>
 4003354:	42000204 	addi	r8,r8,8
 4003358:	003fd306 	br	40032a8 <__alt_mem_onchip_memory2_0+0xfc0012a8>
 400335c:	d9402c17 	ldw	r5,176(sp)
 4003360:	d9801e04 	addi	r6,sp,120
 4003364:	9809883a 	mov	r4,r19
 4003368:	400ae380 	call	400ae38 <__ssprint_r>
 400336c:	1039e11e 	bne	r2,zero,4001af4 <__alt_mem_onchip_memory2_0+0xfbfffaf4>
 4003370:	d8802617 	ldw	r2,152(sp)
 4003374:	d8c02017 	ldw	r3,128(sp)
 4003378:	da000404 	addi	r8,sp,16
 400337c:	003e1c06 	br	4002bf0 <__alt_mem_onchip_memory2_0+0xfc000bf0>
 4003380:	d8802917 	ldw	r2,164(sp)
 4003384:	00c00184 	movi	r3,6
 4003388:	1880012e 	bgeu	r3,r2,4003390 <___svfprintf_internal_r+0x1c30>
 400338c:	1805883a 	mov	r2,r3
 4003390:	d8802e15 	stw	r2,184(sp)
 4003394:	1000f316 	blt	r2,zero,4003764 <___svfprintf_internal_r+0x2004>
 4003398:	040100b4 	movhi	r16,1026
 400339c:	d8802a15 	stw	r2,168(sp)
 40033a0:	dd002d15 	stw	r20,180(sp)
 40033a4:	d8002915 	stw	zero,164(sp)
 40033a8:	d8003215 	stw	zero,200(sp)
 40033ac:	8432d004 	addi	r16,r16,-13504
 40033b0:	0039883a 	mov	fp,zero
 40033b4:	003a9f06 	br	4001e34 <__alt_mem_onchip_memory2_0+0xfbfffe34>
 40033b8:	010100b4 	movhi	r4,1026
 40033bc:	2132d684 	addi	r4,r4,-13478
 40033c0:	d9003515 	stw	r4,212(sp)
 40033c4:	003b5f06 	br	4002144 <__alt_mem_onchip_memory2_0+0xfc000144>
 40033c8:	d9402c17 	ldw	r5,176(sp)
 40033cc:	d9801e04 	addi	r6,sp,120
 40033d0:	9809883a 	mov	r4,r19
 40033d4:	400ae380 	call	400ae38 <__ssprint_r>
 40033d8:	1039c61e 	bne	r2,zero,4001af4 <__alt_mem_onchip_memory2_0+0xfbfffaf4>
 40033dc:	d8802617 	ldw	r2,152(sp)
 40033e0:	d9403317 	ldw	r5,204(sp)
 40033e4:	d8c02017 	ldw	r3,128(sp)
 40033e8:	da000404 	addi	r8,sp,16
 40033ec:	2885c83a 	sub	r2,r5,r2
 40033f0:	003e1006 	br	4002c34 <__alt_mem_onchip_memory2_0+0xfc000c34>
 40033f4:	00800044 	movi	r2,1
 40033f8:	10803fcc 	andi	r2,r2,255
 40033fc:	00c00044 	movi	r3,1
 4003400:	10fa3526 	beq	r2,r3,4001cd8 <__alt_mem_onchip_memory2_0+0xfbfffcd8>
 4003404:	00c00084 	movi	r3,2
 4003408:	10fb9e26 	beq	r2,r3,4002284 <__alt_mem_onchip_memory2_0+0xfc000284>
 400340c:	003a6406 	br	4001da0 <__alt_mem_onchip_memory2_0+0xfbfffda0>
 4003410:	0021883a 	mov	r16,zero
 4003414:	003e0806 	br	4002c38 <__alt_mem_onchip_memory2_0+0xfc000c38>
 4003418:	07000b44 	movi	fp,45
 400341c:	df002785 	stb	fp,158(sp)
 4003420:	003a0b06 	br	4001c50 <__alt_mem_onchip_memory2_0+0xfbfffc50>
 4003424:	d8c02d17 	ldw	r3,180(sp)
 4003428:	d9002f17 	ldw	r4,188(sp)
 400342c:	18800017 	ldw	r2,0(r3)
 4003430:	18c00104 	addi	r3,r3,4
 4003434:	d8c02d15 	stw	r3,180(sp)
 4003438:	11000015 	stw	r4,0(r2)
 400343c:	0038f306 	br	400180c <__alt_mem_onchip_memory2_0+0xfbfff80c>
 4003440:	00c00b44 	movi	r3,45
 4003444:	d8c02785 	stb	r3,158(sp)
 4003448:	d8802a15 	stw	r2,168(sp)
 400344c:	dc802b17 	ldw	r18,172(sp)
 4003450:	d8002915 	stw	zero,164(sp)
 4003454:	07000b44 	movi	fp,45
 4003458:	003a7306 	br	4001e28 <__alt_mem_onchip_memory2_0+0xfbfffe28>
 400345c:	9080004c 	andi	r2,r18,1
 4003460:	1000941e 	bne	r2,zero,40036b4 <___svfprintf_internal_r+0x1f54>
 4003464:	d8802117 	ldw	r2,132(sp)
 4003468:	1405c83a 	sub	r2,r2,r16
 400346c:	d8803315 	stw	r2,204(sp)
 4003470:	b441161e 	bne	r22,r17,40038cc <___svfprintf_internal_r+0x216c>
 4003474:	dd802617 	ldw	r22,152(sp)
 4003478:	00bfff44 	movi	r2,-3
 400347c:	b0801a16 	blt	r22,r2,40034e8 <___svfprintf_internal_r+0x1d88>
 4003480:	d9402917 	ldw	r5,164(sp)
 4003484:	2d801816 	blt	r5,r22,40034e8 <___svfprintf_internal_r+0x1d88>
 4003488:	dd803215 	stw	r22,200(sp)
 400348c:	003f3a06 	br	4003178 <__alt_mem_onchip_memory2_0+0xfc001178>
 4003490:	1025883a 	mov	r18,r2
 4003494:	0039883a 	mov	fp,zero
 4003498:	00800084 	movi	r2,2
 400349c:	003fd606 	br	40033f8 <__alt_mem_onchip_memory2_0+0xfc0013f8>
 40034a0:	9080004c 	andi	r2,r18,1
 40034a4:	103f191e 	bne	r2,zero,400310c <__alt_mem_onchip_memory2_0+0xfc00110c>
 40034a8:	d8802117 	ldw	r2,132(sp)
 40034ac:	003f2806 	br	4003150 <__alt_mem_onchip_memory2_0+0xfc001150>
 40034b0:	010100b4 	movhi	r4,1026
 40034b4:	2132d284 	addi	r4,r4,-13494
 40034b8:	d9002b15 	stw	r4,172(sp)
 40034bc:	003c7c06 	br	40026b0 <__alt_mem_onchip_memory2_0+0xfc0006b0>
 40034c0:	e005883a 	mov	r2,fp
 40034c4:	003f2206 	br	4003150 <__alt_mem_onchip_memory2_0+0xfc001150>
 40034c8:	d9402917 	ldw	r5,164(sp)
 40034cc:	df002783 	ldbu	fp,158(sp)
 40034d0:	dd002d15 	stw	r20,180(sp)
 40034d4:	d9402a15 	stw	r5,168(sp)
 40034d8:	d9402e15 	stw	r5,184(sp)
 40034dc:	d8002915 	stw	zero,164(sp)
 40034e0:	d8003215 	stw	zero,200(sp)
 40034e4:	003a4c06 	br	4001e18 <__alt_mem_onchip_memory2_0+0xfbfffe18>
 40034e8:	8c7fff84 	addi	r17,r17,-2
 40034ec:	b5bfffc4 	addi	r22,r22,-1
 40034f0:	dd802615 	stw	r22,152(sp)
 40034f4:	dc4022c5 	stb	r17,139(sp)
 40034f8:	b000c316 	blt	r22,zero,4003808 <___svfprintf_internal_r+0x20a8>
 40034fc:	00800ac4 	movi	r2,43
 4003500:	d8802305 	stb	r2,140(sp)
 4003504:	00800244 	movi	r2,9
 4003508:	15806e16 	blt	r2,r22,40036c4 <___svfprintf_internal_r+0x1f64>
 400350c:	00800c04 	movi	r2,48
 4003510:	b5800c04 	addi	r22,r22,48
 4003514:	d8802345 	stb	r2,141(sp)
 4003518:	dd802385 	stb	r22,142(sp)
 400351c:	d88023c4 	addi	r2,sp,143
 4003520:	df0022c4 	addi	fp,sp,139
 4003524:	d8c03317 	ldw	r3,204(sp)
 4003528:	1739c83a 	sub	fp,r2,fp
 400352c:	d9003317 	ldw	r4,204(sp)
 4003530:	e0c7883a 	add	r3,fp,r3
 4003534:	df003b15 	stw	fp,236(sp)
 4003538:	d8c02e15 	stw	r3,184(sp)
 400353c:	00800044 	movi	r2,1
 4003540:	1100b70e 	bge	r2,r4,4003820 <___svfprintf_internal_r+0x20c0>
 4003544:	d8c02e17 	ldw	r3,184(sp)
 4003548:	18c00044 	addi	r3,r3,1
 400354c:	d8c02e15 	stw	r3,184(sp)
 4003550:	1805883a 	mov	r2,r3
 4003554:	1800b016 	blt	r3,zero,4003818 <___svfprintf_internal_r+0x20b8>
 4003558:	d8003215 	stw	zero,200(sp)
 400355c:	003f1006 	br	40031a0 <__alt_mem_onchip_memory2_0+0xfc0011a0>
 4003560:	d8802917 	ldw	r2,164(sp)
 4003564:	103ec71e 	bne	r2,zero,4003084 <__alt_mem_onchip_memory2_0+0xfc001084>
 4003568:	dc002915 	stw	r16,164(sp)
 400356c:	003ec506 	br	4003084 <__alt_mem_onchip_memory2_0+0xfc001084>
 4003570:	d9402c17 	ldw	r5,176(sp)
 4003574:	d9801e04 	addi	r6,sp,120
 4003578:	9809883a 	mov	r4,r19
 400357c:	400ae380 	call	400ae38 <__ssprint_r>
 4003580:	10395c1e 	bne	r2,zero,4001af4 <__alt_mem_onchip_memory2_0+0xfbfffaf4>
 4003584:	dc402617 	ldw	r17,152(sp)
 4003588:	d8c02017 	ldw	r3,128(sp)
 400358c:	d8801f17 	ldw	r2,124(sp)
 4003590:	da000404 	addi	r8,sp,16
 4003594:	003e7706 	br	4002f74 <__alt_mem_onchip_memory2_0+0xfc000f74>
 4003598:	582f883a 	mov	r23,r11
 400359c:	d8002915 	stw	zero,164(sp)
 40035a0:	0038c406 	br	40018b4 <__alt_mem_onchip_memory2_0+0xfbfff8b4>
 40035a4:	d8c02917 	ldw	r3,164(sp)
 40035a8:	d8802104 	addi	r2,sp,132
 40035ac:	d8800315 	stw	r2,12(sp)
 40035b0:	d9403617 	ldw	r5,216(sp)
 40035b4:	d8802504 	addi	r2,sp,148
 40035b8:	d8800215 	stw	r2,8(sp)
 40035bc:	d8802604 	addi	r2,sp,152
 40035c0:	d8c00015 	stw	r3,0(sp)
 40035c4:	9809883a 	mov	r4,r19
 40035c8:	d8800115 	stw	r2,4(sp)
 40035cc:	01c000c4 	movi	r7,3
 40035d0:	a00d883a 	mov	r6,r20
 40035d4:	da003e15 	stw	r8,248(sp)
 40035d8:	4005f5c0 	call	4005f5c <_dtoa_r>
 40035dc:	d9002917 	ldw	r4,164(sp)
 40035e0:	da003e17 	ldw	r8,248(sp)
 40035e4:	1021883a 	mov	r16,r2
 40035e8:	1139883a 	add	fp,r2,r4
 40035ec:	2007883a 	mov	r3,r4
 40035f0:	81000007 	ldb	r4,0(r16)
 40035f4:	00800c04 	movi	r2,48
 40035f8:	20806f26 	beq	r4,r2,40037b8 <___svfprintf_internal_r+0x2058>
 40035fc:	d8c02617 	ldw	r3,152(sp)
 4003600:	e0f9883a 	add	fp,fp,r3
 4003604:	003ec206 	br	4003110 <__alt_mem_onchip_memory2_0+0xfc001110>
 4003608:	00c00b44 	movi	r3,45
 400360c:	2520003c 	xorhi	r20,r4,32768
 4003610:	d8c02a05 	stb	r3,168(sp)
 4003614:	003ea106 	br	400309c <__alt_mem_onchip_memory2_0+0xfc00109c>
 4003618:	d8c03217 	ldw	r3,200(sp)
 400361c:	00c0890e 	bge	zero,r3,4003844 <___svfprintf_internal_r+0x20e4>
 4003620:	00800044 	movi	r2,1
 4003624:	d9003317 	ldw	r4,204(sp)
 4003628:	1105883a 	add	r2,r2,r4
 400362c:	d8802e15 	stw	r2,184(sp)
 4003630:	10005f16 	blt	r2,zero,40037b0 <___svfprintf_internal_r+0x2050>
 4003634:	044019c4 	movi	r17,103
 4003638:	003ed906 	br	40031a0 <__alt_mem_onchip_memory2_0+0xfc0011a0>
 400363c:	d9002917 	ldw	r4,164(sp)
 4003640:	20c00044 	addi	r3,r4,1
 4003644:	003e9c06 	br	40030b8 <__alt_mem_onchip_memory2_0+0xfc0010b8>
 4003648:	d9002917 	ldw	r4,164(sp)
 400364c:	00c0680e 	bge	zero,r3,40037f0 <___svfprintf_internal_r+0x2090>
 4003650:	2000461e 	bne	r4,zero,400376c <___svfprintf_internal_r+0x200c>
 4003654:	9480004c 	andi	r18,r18,1
 4003658:	9000441e 	bne	r18,zero,400376c <___svfprintf_internal_r+0x200c>
 400365c:	1805883a 	mov	r2,r3
 4003660:	1800a016 	blt	r3,zero,40038e4 <___svfprintf_internal_r+0x2184>
 4003664:	d8c03217 	ldw	r3,200(sp)
 4003668:	d8c02e15 	stw	r3,184(sp)
 400366c:	003ecc06 	br	40031a0 <__alt_mem_onchip_memory2_0+0xfc0011a0>
 4003670:	d9402917 	ldw	r5,164(sp)
 4003674:	d8802104 	addi	r2,sp,132
 4003678:	d8800315 	stw	r2,12(sp)
 400367c:	d9400015 	stw	r5,0(sp)
 4003680:	d8802504 	addi	r2,sp,148
 4003684:	d9403617 	ldw	r5,216(sp)
 4003688:	d8800215 	stw	r2,8(sp)
 400368c:	d8802604 	addi	r2,sp,152
 4003690:	d8800115 	stw	r2,4(sp)
 4003694:	01c000c4 	movi	r7,3
 4003698:	a00d883a 	mov	r6,r20
 400369c:	9809883a 	mov	r4,r19
 40036a0:	da003e15 	stw	r8,248(sp)
 40036a4:	4005f5c0 	call	4005f5c <_dtoa_r>
 40036a8:	d8c02917 	ldw	r3,164(sp)
 40036ac:	da003e17 	ldw	r8,248(sp)
 40036b0:	1021883a 	mov	r16,r2
 40036b4:	00801184 	movi	r2,70
 40036b8:	80f9883a 	add	fp,r16,r3
 40036bc:	88bfcc26 	beq	r17,r2,40035f0 <__alt_mem_onchip_memory2_0+0xfc0015f0>
 40036c0:	003e9306 	br	4003110 <__alt_mem_onchip_memory2_0+0xfc001110>
 40036c4:	df0022c4 	addi	fp,sp,139
 40036c8:	dc002915 	stw	r16,164(sp)
 40036cc:	9829883a 	mov	r20,r19
 40036d0:	e021883a 	mov	r16,fp
 40036d4:	4027883a 	mov	r19,r8
 40036d8:	b009883a 	mov	r4,r22
 40036dc:	01400284 	movi	r5,10
 40036e0:	4000dc00 	call	4000dc0 <__modsi3>
 40036e4:	10800c04 	addi	r2,r2,48
 40036e8:	843fffc4 	addi	r16,r16,-1
 40036ec:	b009883a 	mov	r4,r22
 40036f0:	01400284 	movi	r5,10
 40036f4:	80800005 	stb	r2,0(r16)
 40036f8:	4000d3c0 	call	4000d3c <__divsi3>
 40036fc:	102d883a 	mov	r22,r2
 4003700:	00800244 	movi	r2,9
 4003704:	15bff416 	blt	r2,r22,40036d8 <__alt_mem_onchip_memory2_0+0xfc0016d8>
 4003708:	9811883a 	mov	r8,r19
 400370c:	b0800c04 	addi	r2,r22,48
 4003710:	a027883a 	mov	r19,r20
 4003714:	8029883a 	mov	r20,r16
 4003718:	a17fffc4 	addi	r5,r20,-1
 400371c:	a0bfffc5 	stb	r2,-1(r20)
 4003720:	dc002917 	ldw	r16,164(sp)
 4003724:	2f00752e 	bgeu	r5,fp,40038fc <___svfprintf_internal_r+0x219c>
 4003728:	d9c02384 	addi	r7,sp,142
 400372c:	3d0fc83a 	sub	r7,r7,r20
 4003730:	d9002344 	addi	r4,sp,141
 4003734:	e1cf883a 	add	r7,fp,r7
 4003738:	00000106 	br	4003740 <___svfprintf_internal_r+0x1fe0>
 400373c:	28800003 	ldbu	r2,0(r5)
 4003740:	20800005 	stb	r2,0(r4)
 4003744:	21000044 	addi	r4,r4,1
 4003748:	29400044 	addi	r5,r5,1
 400374c:	21fffb1e 	bne	r4,r7,400373c <__alt_mem_onchip_memory2_0+0xfc00173c>
 4003750:	d8802304 	addi	r2,sp,140
 4003754:	1505c83a 	sub	r2,r2,r20
 4003758:	d8c02344 	addi	r3,sp,141
 400375c:	1885883a 	add	r2,r3,r2
 4003760:	003f7006 	br	4003524 <__alt_mem_onchip_memory2_0+0xfc001524>
 4003764:	0005883a 	mov	r2,zero
 4003768:	003f0b06 	br	4003398 <__alt_mem_onchip_memory2_0+0xfc001398>
 400376c:	d9002917 	ldw	r4,164(sp)
 4003770:	d8c03217 	ldw	r3,200(sp)
 4003774:	20800044 	addi	r2,r4,1
 4003778:	1885883a 	add	r2,r3,r2
 400377c:	d8802e15 	stw	r2,184(sp)
 4003780:	103e870e 	bge	r2,zero,40031a0 <__alt_mem_onchip_memory2_0+0xfc0011a0>
 4003784:	0005883a 	mov	r2,zero
 4003788:	003e8506 	br	40031a0 <__alt_mem_onchip_memory2_0+0xfc0011a0>
 400378c:	010100b4 	movhi	r4,1026
 4003790:	2132d284 	addi	r4,r4,-13494
 4003794:	d9002b15 	stw	r4,172(sp)
 4003798:	003cc506 	br	4002ab0 <__alt_mem_onchip_memory2_0+0xfc000ab0>
 400379c:	d8c03217 	ldw	r3,200(sp)
 40037a0:	18c00044 	addi	r3,r3,1
 40037a4:	d8c02e15 	stw	r3,184(sp)
 40037a8:	1805883a 	mov	r2,r3
 40037ac:	183fa10e 	bge	r3,zero,4003634 <__alt_mem_onchip_memory2_0+0xfc001634>
 40037b0:	0005883a 	mov	r2,zero
 40037b4:	003f9f06 	br	4003634 <__alt_mem_onchip_memory2_0+0xfc001634>
 40037b8:	d9003617 	ldw	r4,216(sp)
 40037bc:	000d883a 	mov	r6,zero
 40037c0:	000f883a 	mov	r7,zero
 40037c4:	a00b883a 	mov	r5,r20
 40037c8:	d8c03d15 	stw	r3,244(sp)
 40037cc:	da003e15 	stw	r8,248(sp)
 40037d0:	400fe640 	call	400fe64 <__eqdf2>
 40037d4:	d8c03d17 	ldw	r3,244(sp)
 40037d8:	da003e17 	ldw	r8,248(sp)
 40037dc:	103f8726 	beq	r2,zero,40035fc <__alt_mem_onchip_memory2_0+0xfc0015fc>
 40037e0:	00800044 	movi	r2,1
 40037e4:	10c7c83a 	sub	r3,r2,r3
 40037e8:	d8c02615 	stw	r3,152(sp)
 40037ec:	003f8406 	br	4003600 <__alt_mem_onchip_memory2_0+0xfc001600>
 40037f0:	20000e1e 	bne	r4,zero,400382c <___svfprintf_internal_r+0x20cc>
 40037f4:	9480004c 	andi	r18,r18,1
 40037f8:	90000c1e 	bne	r18,zero,400382c <___svfprintf_internal_r+0x20cc>
 40037fc:	00800044 	movi	r2,1
 4003800:	d8802e15 	stw	r2,184(sp)
 4003804:	003e6606 	br	40031a0 <__alt_mem_onchip_memory2_0+0xfc0011a0>
 4003808:	00800b44 	movi	r2,45
 400380c:	05adc83a 	sub	r22,zero,r22
 4003810:	d8802305 	stb	r2,140(sp)
 4003814:	003f3b06 	br	4003504 <__alt_mem_onchip_memory2_0+0xfc001504>
 4003818:	0005883a 	mov	r2,zero
 400381c:	003f4e06 	br	4003558 <__alt_mem_onchip_memory2_0+0xfc001558>
 4003820:	90a4703a 	and	r18,r18,r2
 4003824:	903f4a26 	beq	r18,zero,4003550 <__alt_mem_onchip_memory2_0+0xfc001550>
 4003828:	003f4606 	br	4003544 <__alt_mem_onchip_memory2_0+0xfc001544>
 400382c:	d8c02917 	ldw	r3,164(sp)
 4003830:	18c00084 	addi	r3,r3,2
 4003834:	d8c02e15 	stw	r3,184(sp)
 4003838:	1805883a 	mov	r2,r3
 400383c:	183e580e 	bge	r3,zero,40031a0 <__alt_mem_onchip_memory2_0+0xfc0011a0>
 4003840:	003fd006 	br	4003784 <__alt_mem_onchip_memory2_0+0xfc001784>
 4003844:	00800084 	movi	r2,2
 4003848:	10c5c83a 	sub	r2,r2,r3
 400384c:	003f7506 	br	4003624 <__alt_mem_onchip_memory2_0+0xfc001624>
 4003850:	d8802d17 	ldw	r2,180(sp)
 4003854:	d9002d17 	ldw	r4,180(sp)
 4003858:	bc400043 	ldbu	r17,1(r23)
 400385c:	10800017 	ldw	r2,0(r2)
 4003860:	582f883a 	mov	r23,r11
 4003864:	d8802915 	stw	r2,164(sp)
 4003868:	20800104 	addi	r2,r4,4
 400386c:	d9002917 	ldw	r4,164(sp)
 4003870:	d8802d15 	stw	r2,180(sp)
 4003874:	203df00e 	bge	r4,zero,4003038 <__alt_mem_onchip_memory2_0+0xfc001038>
 4003878:	8c403fcc 	andi	r17,r17,255
 400387c:	00bfffc4 	movi	r2,-1
 4003880:	8c40201c 	xori	r17,r17,128
 4003884:	d8802915 	stw	r2,164(sp)
 4003888:	8c7fe004 	addi	r17,r17,-128
 400388c:	00380806 	br	40018b0 <__alt_mem_onchip_memory2_0+0xfbfff8b0>
 4003890:	9080004c 	andi	r2,r18,1
 4003894:	0039883a 	mov	fp,zero
 4003898:	10000726 	beq	r2,zero,40038b8 <___svfprintf_internal_r+0x2158>
 400389c:	d8c02817 	ldw	r3,160(sp)
 40038a0:	dc001dc4 	addi	r16,sp,119
 40038a4:	00800c04 	movi	r2,48
 40038a8:	1c07c83a 	sub	r3,r3,r16
 40038ac:	d8801dc5 	stb	r2,119(sp)
 40038b0:	d8c02e15 	stw	r3,184(sp)
 40038b4:	00395206 	br	4001e00 <__alt_mem_onchip_memory2_0+0xfbfffe00>
 40038b8:	d8002e15 	stw	zero,184(sp)
 40038bc:	dc001e04 	addi	r16,sp,120
 40038c0:	00394f06 	br	4001e00 <__alt_mem_onchip_memory2_0+0xfbfffe00>
 40038c4:	0005883a 	mov	r2,zero
 40038c8:	003e3206 	br	4003194 <__alt_mem_onchip_memory2_0+0xfc001194>
 40038cc:	dd802617 	ldw	r22,152(sp)
 40038d0:	003f0606 	br	40034ec <__alt_mem_onchip_memory2_0+0xfc0014ec>
 40038d4:	d9c02785 	stb	r7,158(sp)
 40038d8:	003a5106 	br	4002220 <__alt_mem_onchip_memory2_0+0xfc000220>
 40038dc:	d9c02785 	stb	r7,158(sp)
 40038e0:	003a3706 	br	40021c0 <__alt_mem_onchip_memory2_0+0xfc0001c0>
 40038e4:	0005883a 	mov	r2,zero
 40038e8:	003f5e06 	br	4003664 <__alt_mem_onchip_memory2_0+0xfc001664>
 40038ec:	d9c02785 	stb	r7,158(sp)
 40038f0:	00391706 	br	4001d50 <__alt_mem_onchip_memory2_0+0xfbfffd50>
 40038f4:	d9c02785 	stb	r7,158(sp)
 40038f8:	0038e606 	br	4001c94 <__alt_mem_onchip_memory2_0+0xfbfffc94>
 40038fc:	d8802344 	addi	r2,sp,141
 4003900:	003f0806 	br	4003524 <__alt_mem_onchip_memory2_0+0xfc001524>
 4003904:	d9c02785 	stb	r7,158(sp)
 4003908:	0038b706 	br	4001be8 <__alt_mem_onchip_memory2_0+0xfbfffbe8>
 400390c:	d9c02785 	stb	r7,158(sp)
 4003910:	003adc06 	br	4002484 <__alt_mem_onchip_memory2_0+0xfc000484>
 4003914:	d9403917 	ldw	r5,228(sp)
 4003918:	00800304 	movi	r2,12
 400391c:	28800015 	stw	r2,0(r5)
 4003920:	00bfffc4 	movi	r2,-1
 4003924:	00387806 	br	4001b08 <__alt_mem_onchip_memory2_0+0xfbfffb08>
 4003928:	d9c02785 	stb	r7,158(sp)
 400392c:	003abf06 	br	400242c <__alt_mem_onchip_memory2_0+0xfc00042c>
 4003930:	d9c02785 	stb	r7,158(sp)
 4003934:	003a9b06 	br	40023a4 <__alt_mem_onchip_memory2_0+0xfc0003a4>

04003938 <___vfprintf_internal_r>:
 4003938:	deffb804 	addi	sp,sp,-288
 400393c:	dfc04715 	stw	ra,284(sp)
 4003940:	ddc04515 	stw	r23,276(sp)
 4003944:	dd404315 	stw	r21,268(sp)
 4003948:	d9002c15 	stw	r4,176(sp)
 400394c:	282f883a 	mov	r23,r5
 4003950:	302b883a 	mov	r21,r6
 4003954:	d9c02d15 	stw	r7,180(sp)
 4003958:	df004615 	stw	fp,280(sp)
 400395c:	dd804415 	stw	r22,272(sp)
 4003960:	dd004215 	stw	r20,264(sp)
 4003964:	dcc04115 	stw	r19,260(sp)
 4003968:	dc804015 	stw	r18,256(sp)
 400396c:	dc403f15 	stw	r17,252(sp)
 4003970:	dc003e15 	stw	r16,248(sp)
 4003974:	40087500 	call	4008750 <_localeconv_r>
 4003978:	10800017 	ldw	r2,0(r2)
 400397c:	1009883a 	mov	r4,r2
 4003980:	d8803415 	stw	r2,208(sp)
 4003984:	40016c80 	call	40016c8 <strlen>
 4003988:	d8803715 	stw	r2,220(sp)
 400398c:	d8802c17 	ldw	r2,176(sp)
 4003990:	10000226 	beq	r2,zero,400399c <___vfprintf_internal_r+0x64>
 4003994:	10800e17 	ldw	r2,56(r2)
 4003998:	1000f926 	beq	r2,zero,4003d80 <___vfprintf_internal_r+0x448>
 400399c:	b880030b 	ldhu	r2,12(r23)
 40039a0:	10c8000c 	andi	r3,r2,8192
 40039a4:	1800061e 	bne	r3,zero,40039c0 <___vfprintf_internal_r+0x88>
 40039a8:	b9001917 	ldw	r4,100(r23)
 40039ac:	00f7ffc4 	movi	r3,-8193
 40039b0:	10880014 	ori	r2,r2,8192
 40039b4:	20c6703a 	and	r3,r4,r3
 40039b8:	b880030d 	sth	r2,12(r23)
 40039bc:	b8c01915 	stw	r3,100(r23)
 40039c0:	10c0020c 	andi	r3,r2,8
 40039c4:	1800c126 	beq	r3,zero,4003ccc <___vfprintf_internal_r+0x394>
 40039c8:	b8c00417 	ldw	r3,16(r23)
 40039cc:	1800bf26 	beq	r3,zero,4003ccc <___vfprintf_internal_r+0x394>
 40039d0:	1080068c 	andi	r2,r2,26
 40039d4:	00c00284 	movi	r3,10
 40039d8:	10c0c426 	beq	r2,r3,4003cec <___vfprintf_internal_r+0x3b4>
 40039dc:	d8c00404 	addi	r3,sp,16
 40039e0:	050100b4 	movhi	r20,1026
 40039e4:	d9001e04 	addi	r4,sp,120
 40039e8:	a532da84 	addi	r20,r20,-13462
 40039ec:	d8c01e15 	stw	r3,120(sp)
 40039f0:	d8002015 	stw	zero,128(sp)
 40039f4:	d8001f15 	stw	zero,124(sp)
 40039f8:	d8003315 	stw	zero,204(sp)
 40039fc:	d8003615 	stw	zero,216(sp)
 4003a00:	d8003815 	stw	zero,224(sp)
 4003a04:	1811883a 	mov	r8,r3
 4003a08:	d8003915 	stw	zero,228(sp)
 4003a0c:	d8003a15 	stw	zero,232(sp)
 4003a10:	d8002f15 	stw	zero,188(sp)
 4003a14:	d9002815 	stw	r4,160(sp)
 4003a18:	a8800007 	ldb	r2,0(r21)
 4003a1c:	10027b26 	beq	r2,zero,400440c <___vfprintf_internal_r+0xad4>
 4003a20:	00c00944 	movi	r3,37
 4003a24:	a821883a 	mov	r16,r21
 4003a28:	10c0021e 	bne	r2,r3,4003a34 <___vfprintf_internal_r+0xfc>
 4003a2c:	00001406 	br	4003a80 <___vfprintf_internal_r+0x148>
 4003a30:	10c00326 	beq	r2,r3,4003a40 <___vfprintf_internal_r+0x108>
 4003a34:	84000044 	addi	r16,r16,1
 4003a38:	80800007 	ldb	r2,0(r16)
 4003a3c:	103ffc1e 	bne	r2,zero,4003a30 <__alt_mem_onchip_memory2_0+0xfc001a30>
 4003a40:	8563c83a 	sub	r17,r16,r21
 4003a44:	88000e26 	beq	r17,zero,4003a80 <___vfprintf_internal_r+0x148>
 4003a48:	d8c02017 	ldw	r3,128(sp)
 4003a4c:	d8801f17 	ldw	r2,124(sp)
 4003a50:	45400015 	stw	r21,0(r8)
 4003a54:	1c47883a 	add	r3,r3,r17
 4003a58:	10800044 	addi	r2,r2,1
 4003a5c:	d8c02015 	stw	r3,128(sp)
 4003a60:	44400115 	stw	r17,4(r8)
 4003a64:	d8801f15 	stw	r2,124(sp)
 4003a68:	00c001c4 	movi	r3,7
 4003a6c:	1880a716 	blt	r3,r2,4003d0c <___vfprintf_internal_r+0x3d4>
 4003a70:	42000204 	addi	r8,r8,8
 4003a74:	d9402f17 	ldw	r5,188(sp)
 4003a78:	2c4b883a 	add	r5,r5,r17
 4003a7c:	d9402f15 	stw	r5,188(sp)
 4003a80:	80800007 	ldb	r2,0(r16)
 4003a84:	1000a826 	beq	r2,zero,4003d28 <___vfprintf_internal_r+0x3f0>
 4003a88:	84400047 	ldb	r17,1(r16)
 4003a8c:	00bfffc4 	movi	r2,-1
 4003a90:	85400044 	addi	r21,r16,1
 4003a94:	d8002785 	stb	zero,158(sp)
 4003a98:	0007883a 	mov	r3,zero
 4003a9c:	000f883a 	mov	r7,zero
 4003aa0:	d8802915 	stw	r2,164(sp)
 4003aa4:	d8003115 	stw	zero,196(sp)
 4003aa8:	0025883a 	mov	r18,zero
 4003aac:	01401604 	movi	r5,88
 4003ab0:	01800244 	movi	r6,9
 4003ab4:	02800a84 	movi	r10,42
 4003ab8:	02401b04 	movi	r9,108
 4003abc:	ad400044 	addi	r21,r21,1
 4003ac0:	88bff804 	addi	r2,r17,-32
 4003ac4:	28830436 	bltu	r5,r2,40046d8 <___vfprintf_internal_r+0xda0>
 4003ac8:	100490ba 	slli	r2,r2,2
 4003acc:	01010034 	movhi	r4,1024
 4003ad0:	210eb804 	addi	r4,r4,15072
 4003ad4:	1105883a 	add	r2,r2,r4
 4003ad8:	10800017 	ldw	r2,0(r2)
 4003adc:	1000683a 	jmp	r2
 4003ae0:	040045f8 	rdprs	r16,zero,279
 4003ae4:	040046d8 	cmpnei	r16,zero,283
 4003ae8:	040046d8 	cmpnei	r16,zero,283
 4003aec:	04004618 	cmpnei	r16,zero,280
 4003af0:	040046d8 	cmpnei	r16,zero,283
 4003af4:	040046d8 	cmpnei	r16,zero,283
 4003af8:	040046d8 	cmpnei	r16,zero,283
 4003afc:	040046d8 	cmpnei	r16,zero,283
 4003b00:	040046d8 	cmpnei	r16,zero,283
 4003b04:	040046d8 	cmpnei	r16,zero,283
 4003b08:	04003d8c 	andi	r16,zero,246
 4003b0c:	04004534 	movhi	r16,276
 4003b10:	040046d8 	cmpnei	r16,zero,283
 4003b14:	04003c54 	movui	r16,241
 4003b18:	04003db4 	movhi	r16,246
 4003b1c:	040046d8 	cmpnei	r16,zero,283
 4003b20:	04003df4 	movhi	r16,247
 4003b24:	04003e00 	call	4003e0 <OSCtxSw_SWITCH_PC+0x4003a0>
 4003b28:	04003e00 	call	4003e0 <OSCtxSw_SWITCH_PC+0x4003a0>
 4003b2c:	04003e00 	call	4003e0 <OSCtxSw_SWITCH_PC+0x4003a0>
 4003b30:	04003e00 	call	4003e0 <OSCtxSw_SWITCH_PC+0x4003a0>
 4003b34:	04003e00 	call	4003e0 <OSCtxSw_SWITCH_PC+0x4003a0>
 4003b38:	04003e00 	call	4003e0 <OSCtxSw_SWITCH_PC+0x4003a0>
 4003b3c:	04003e00 	call	4003e0 <OSCtxSw_SWITCH_PC+0x4003a0>
 4003b40:	04003e00 	call	4003e0 <OSCtxSw_SWITCH_PC+0x4003a0>
 4003b44:	04003e00 	call	4003e0 <OSCtxSw_SWITCH_PC+0x4003a0>
 4003b48:	040046d8 	cmpnei	r16,zero,283
 4003b4c:	040046d8 	cmpnei	r16,zero,283
 4003b50:	040046d8 	cmpnei	r16,zero,283
 4003b54:	040046d8 	cmpnei	r16,zero,283
 4003b58:	040046d8 	cmpnei	r16,zero,283
 4003b5c:	040046d8 	cmpnei	r16,zero,283
 4003b60:	040046d8 	cmpnei	r16,zero,283
 4003b64:	040046d8 	cmpnei	r16,zero,283
 4003b68:	040046d8 	cmpnei	r16,zero,283
 4003b6c:	040046d8 	cmpnei	r16,zero,283
 4003b70:	04003e34 	movhi	r16,248
 4003b74:	04003ef0 	cmpltui	r16,zero,251
 4003b78:	040046d8 	cmpnei	r16,zero,283
 4003b7c:	04003ef0 	cmpltui	r16,zero,251
 4003b80:	040046d8 	cmpnei	r16,zero,283
 4003b84:	040046d8 	cmpnei	r16,zero,283
 4003b88:	040046d8 	cmpnei	r16,zero,283
 4003b8c:	040046d8 	cmpnei	r16,zero,283
 4003b90:	04003f90 	cmplti	r16,zero,254
 4003b94:	040046d8 	cmpnei	r16,zero,283
 4003b98:	040046d8 	cmpnei	r16,zero,283
 4003b9c:	04003f9c 	xori	r16,zero,254
 4003ba0:	040046d8 	cmpnei	r16,zero,283
 4003ba4:	040046d8 	cmpnei	r16,zero,283
 4003ba8:	040046d8 	cmpnei	r16,zero,283
 4003bac:	040046d8 	cmpnei	r16,zero,283
 4003bb0:	040046d8 	cmpnei	r16,zero,283
 4003bb4:	04004414 	movui	r16,272
 4003bb8:	040046d8 	cmpnei	r16,zero,283
 4003bbc:	040046d8 	cmpnei	r16,zero,283
 4003bc0:	04004474 	movhi	r16,273
 4003bc4:	040046d8 	cmpnei	r16,zero,283
 4003bc8:	040046d8 	cmpnei	r16,zero,283
 4003bcc:	040046d8 	cmpnei	r16,zero,283
 4003bd0:	040046d8 	cmpnei	r16,zero,283
 4003bd4:	040046d8 	cmpnei	r16,zero,283
 4003bd8:	040046d8 	cmpnei	r16,zero,283
 4003bdc:	040046d8 	cmpnei	r16,zero,283
 4003be0:	040046d8 	cmpnei	r16,zero,283
 4003be4:	040046d8 	cmpnei	r16,zero,283
 4003be8:	040046d8 	cmpnei	r16,zero,283
 4003bec:	04004684 	movi	r16,282
 4003bf0:	04004624 	muli	r16,zero,280
 4003bf4:	04003ef0 	cmpltui	r16,zero,251
 4003bf8:	04003ef0 	cmpltui	r16,zero,251
 4003bfc:	04003ef0 	cmpltui	r16,zero,251
 4003c00:	04004634 	movhi	r16,280
 4003c04:	04004624 	muli	r16,zero,280
 4003c08:	040046d8 	cmpnei	r16,zero,283
 4003c0c:	040046d8 	cmpnei	r16,zero,283
 4003c10:	04004640 	call	400464 <OSCtxSw_SWITCH_PC+0x400424>
 4003c14:	040046d8 	cmpnei	r16,zero,283
 4003c18:	04004650 	cmplti	r16,zero,281
 4003c1c:	04004524 	muli	r16,zero,276
 4003c20:	04003c60 	cmpeqi	r16,zero,241
 4003c24:	04004544 	movi	r16,277
 4003c28:	040046d8 	cmpnei	r16,zero,283
 4003c2c:	04004550 	cmplti	r16,zero,277
 4003c30:	040046d8 	cmpnei	r16,zero,283
 4003c34:	040045ac 	andhi	r16,zero,278
 4003c38:	040046d8 	cmpnei	r16,zero,283
 4003c3c:	040046d8 	cmpnei	r16,zero,283
 4003c40:	040045bc 	xorhi	r16,zero,278
 4003c44:	d9003117 	ldw	r4,196(sp)
 4003c48:	d8802d15 	stw	r2,180(sp)
 4003c4c:	0109c83a 	sub	r4,zero,r4
 4003c50:	d9003115 	stw	r4,196(sp)
 4003c54:	94800114 	ori	r18,r18,4
 4003c58:	ac400007 	ldb	r17,0(r21)
 4003c5c:	003f9706 	br	4003abc <__alt_mem_onchip_memory2_0+0xfc001abc>
 4003c60:	00800c04 	movi	r2,48
 4003c64:	d9002d17 	ldw	r4,180(sp)
 4003c68:	d9402917 	ldw	r5,164(sp)
 4003c6c:	d8802705 	stb	r2,156(sp)
 4003c70:	00801e04 	movi	r2,120
 4003c74:	d8802745 	stb	r2,157(sp)
 4003c78:	d8002785 	stb	zero,158(sp)
 4003c7c:	20c00104 	addi	r3,r4,4
 4003c80:	24c00017 	ldw	r19,0(r4)
 4003c84:	002d883a 	mov	r22,zero
 4003c88:	90800094 	ori	r2,r18,2
 4003c8c:	28029a16 	blt	r5,zero,40046f8 <___vfprintf_internal_r+0xdc0>
 4003c90:	00bfdfc4 	movi	r2,-129
 4003c94:	90a4703a 	and	r18,r18,r2
 4003c98:	d8c02d15 	stw	r3,180(sp)
 4003c9c:	94800094 	ori	r18,r18,2
 4003ca0:	9802871e 	bne	r19,zero,40046c0 <___vfprintf_internal_r+0xd88>
 4003ca4:	008100b4 	movhi	r2,1026
 4003ca8:	10b2cb04 	addi	r2,r2,-13524
 4003cac:	d8803915 	stw	r2,228(sp)
 4003cb0:	04401e04 	movi	r17,120
 4003cb4:	d8802917 	ldw	r2,164(sp)
 4003cb8:	0039883a 	mov	fp,zero
 4003cbc:	1001e926 	beq	r2,zero,4004464 <___vfprintf_internal_r+0xb2c>
 4003cc0:	0027883a 	mov	r19,zero
 4003cc4:	002d883a 	mov	r22,zero
 4003cc8:	00020506 	br	40044e0 <___vfprintf_internal_r+0xba8>
 4003ccc:	d9002c17 	ldw	r4,176(sp)
 4003cd0:	b80b883a 	mov	r5,r23
 4003cd4:	4005c080 	call	4005c08 <__swsetup_r>
 4003cd8:	1005ac1e 	bne	r2,zero,400538c <___vfprintf_internal_r+0x1a54>
 4003cdc:	b880030b 	ldhu	r2,12(r23)
 4003ce0:	00c00284 	movi	r3,10
 4003ce4:	1080068c 	andi	r2,r2,26
 4003ce8:	10ff3c1e 	bne	r2,r3,40039dc <__alt_mem_onchip_memory2_0+0xfc0019dc>
 4003cec:	b880038f 	ldh	r2,14(r23)
 4003cf0:	103f3a16 	blt	r2,zero,40039dc <__alt_mem_onchip_memory2_0+0xfc0019dc>
 4003cf4:	d9c02d17 	ldw	r7,180(sp)
 4003cf8:	d9002c17 	ldw	r4,176(sp)
 4003cfc:	a80d883a 	mov	r6,r21
 4003d00:	b80b883a 	mov	r5,r23
 4003d04:	4005b4c0 	call	4005b4c <__sbprintf>
 4003d08:	00001106 	br	4003d50 <___vfprintf_internal_r+0x418>
 4003d0c:	d9002c17 	ldw	r4,176(sp)
 4003d10:	d9801e04 	addi	r6,sp,120
 4003d14:	b80b883a 	mov	r5,r23
 4003d18:	400c3400 	call	400c340 <__sprint_r>
 4003d1c:	1000081e 	bne	r2,zero,4003d40 <___vfprintf_internal_r+0x408>
 4003d20:	da000404 	addi	r8,sp,16
 4003d24:	003f5306 	br	4003a74 <__alt_mem_onchip_memory2_0+0xfc001a74>
 4003d28:	d8802017 	ldw	r2,128(sp)
 4003d2c:	10000426 	beq	r2,zero,4003d40 <___vfprintf_internal_r+0x408>
 4003d30:	d9002c17 	ldw	r4,176(sp)
 4003d34:	d9801e04 	addi	r6,sp,120
 4003d38:	b80b883a 	mov	r5,r23
 4003d3c:	400c3400 	call	400c340 <__sprint_r>
 4003d40:	b880030b 	ldhu	r2,12(r23)
 4003d44:	1080100c 	andi	r2,r2,64
 4003d48:	1005901e 	bne	r2,zero,400538c <___vfprintf_internal_r+0x1a54>
 4003d4c:	d8802f17 	ldw	r2,188(sp)
 4003d50:	dfc04717 	ldw	ra,284(sp)
 4003d54:	df004617 	ldw	fp,280(sp)
 4003d58:	ddc04517 	ldw	r23,276(sp)
 4003d5c:	dd804417 	ldw	r22,272(sp)
 4003d60:	dd404317 	ldw	r21,268(sp)
 4003d64:	dd004217 	ldw	r20,264(sp)
 4003d68:	dcc04117 	ldw	r19,260(sp)
 4003d6c:	dc804017 	ldw	r18,256(sp)
 4003d70:	dc403f17 	ldw	r17,252(sp)
 4003d74:	dc003e17 	ldw	r16,248(sp)
 4003d78:	dec04804 	addi	sp,sp,288
 4003d7c:	f800283a 	ret
 4003d80:	d9002c17 	ldw	r4,176(sp)
 4003d84:	4007bdc0 	call	4007bdc <__sinit>
 4003d88:	003f0406 	br	400399c <__alt_mem_onchip_memory2_0+0xfc00199c>
 4003d8c:	d8802d17 	ldw	r2,180(sp)
 4003d90:	d9002d17 	ldw	r4,180(sp)
 4003d94:	10800017 	ldw	r2,0(r2)
 4003d98:	d8803115 	stw	r2,196(sp)
 4003d9c:	20800104 	addi	r2,r4,4
 4003da0:	d9003117 	ldw	r4,196(sp)
 4003da4:	203fa716 	blt	r4,zero,4003c44 <__alt_mem_onchip_memory2_0+0xfc001c44>
 4003da8:	d8802d15 	stw	r2,180(sp)
 4003dac:	ac400007 	ldb	r17,0(r21)
 4003db0:	003f4206 	br	4003abc <__alt_mem_onchip_memory2_0+0xfc001abc>
 4003db4:	ac400007 	ldb	r17,0(r21)
 4003db8:	aac00044 	addi	r11,r21,1
 4003dbc:	8a872826 	beq	r17,r10,4005a60 <___vfprintf_internal_r+0x2128>
 4003dc0:	88bff404 	addi	r2,r17,-48
 4003dc4:	0009883a 	mov	r4,zero
 4003dc8:	30867d36 	bltu	r6,r2,40057c0 <___vfprintf_internal_r+0x1e88>
 4003dcc:	5c400007 	ldb	r17,0(r11)
 4003dd0:	210002a4 	muli	r4,r4,10
 4003dd4:	5d400044 	addi	r21,r11,1
 4003dd8:	a817883a 	mov	r11,r21
 4003ddc:	2089883a 	add	r4,r4,r2
 4003de0:	88bff404 	addi	r2,r17,-48
 4003de4:	30bff92e 	bgeu	r6,r2,4003dcc <__alt_mem_onchip_memory2_0+0xfc001dcc>
 4003de8:	2005c916 	blt	r4,zero,4005510 <___vfprintf_internal_r+0x1bd8>
 4003dec:	d9002915 	stw	r4,164(sp)
 4003df0:	003f3306 	br	4003ac0 <__alt_mem_onchip_memory2_0+0xfc001ac0>
 4003df4:	94802014 	ori	r18,r18,128
 4003df8:	ac400007 	ldb	r17,0(r21)
 4003dfc:	003f2f06 	br	4003abc <__alt_mem_onchip_memory2_0+0xfc001abc>
 4003e00:	a809883a 	mov	r4,r21
 4003e04:	d8003115 	stw	zero,196(sp)
 4003e08:	88bff404 	addi	r2,r17,-48
 4003e0c:	0017883a 	mov	r11,zero
 4003e10:	24400007 	ldb	r17,0(r4)
 4003e14:	5ac002a4 	muli	r11,r11,10
 4003e18:	ad400044 	addi	r21,r21,1
 4003e1c:	a809883a 	mov	r4,r21
 4003e20:	12d7883a 	add	r11,r2,r11
 4003e24:	88bff404 	addi	r2,r17,-48
 4003e28:	30bff92e 	bgeu	r6,r2,4003e10 <__alt_mem_onchip_memory2_0+0xfc001e10>
 4003e2c:	dac03115 	stw	r11,196(sp)
 4003e30:	003f2306 	br	4003ac0 <__alt_mem_onchip_memory2_0+0xfc001ac0>
 4003e34:	18c03fcc 	andi	r3,r3,255
 4003e38:	18072b1e 	bne	r3,zero,4005ae8 <___vfprintf_internal_r+0x21b0>
 4003e3c:	94800414 	ori	r18,r18,16
 4003e40:	9080080c 	andi	r2,r18,32
 4003e44:	10037b26 	beq	r2,zero,4004c34 <___vfprintf_internal_r+0x12fc>
 4003e48:	d9402d17 	ldw	r5,180(sp)
 4003e4c:	28800117 	ldw	r2,4(r5)
 4003e50:	2cc00017 	ldw	r19,0(r5)
 4003e54:	29400204 	addi	r5,r5,8
 4003e58:	d9402d15 	stw	r5,180(sp)
 4003e5c:	102d883a 	mov	r22,r2
 4003e60:	10044b16 	blt	r2,zero,4004f90 <___vfprintf_internal_r+0x1658>
 4003e64:	d9402917 	ldw	r5,164(sp)
 4003e68:	df002783 	ldbu	fp,158(sp)
 4003e6c:	2803bc16 	blt	r5,zero,4004d60 <___vfprintf_internal_r+0x1428>
 4003e70:	00ffdfc4 	movi	r3,-129
 4003e74:	9d84b03a 	or	r2,r19,r22
 4003e78:	90e4703a 	and	r18,r18,r3
 4003e7c:	10017726 	beq	r2,zero,400445c <___vfprintf_internal_r+0xb24>
 4003e80:	b0038326 	beq	r22,zero,4004c90 <___vfprintf_internal_r+0x1358>
 4003e84:	dc402a15 	stw	r17,168(sp)
 4003e88:	dc001e04 	addi	r16,sp,120
 4003e8c:	b023883a 	mov	r17,r22
 4003e90:	402d883a 	mov	r22,r8
 4003e94:	9809883a 	mov	r4,r19
 4003e98:	880b883a 	mov	r5,r17
 4003e9c:	01800284 	movi	r6,10
 4003ea0:	000f883a 	mov	r7,zero
 4003ea4:	400e7980 	call	400e798 <__umoddi3>
 4003ea8:	10800c04 	addi	r2,r2,48
 4003eac:	843fffc4 	addi	r16,r16,-1
 4003eb0:	9809883a 	mov	r4,r19
 4003eb4:	880b883a 	mov	r5,r17
 4003eb8:	80800005 	stb	r2,0(r16)
 4003ebc:	01800284 	movi	r6,10
 4003ec0:	000f883a 	mov	r7,zero
 4003ec4:	400e2200 	call	400e220 <__udivdi3>
 4003ec8:	1027883a 	mov	r19,r2
 4003ecc:	10c4b03a 	or	r2,r2,r3
 4003ed0:	1823883a 	mov	r17,r3
 4003ed4:	103fef1e 	bne	r2,zero,4003e94 <__alt_mem_onchip_memory2_0+0xfc001e94>
 4003ed8:	d8c02817 	ldw	r3,160(sp)
 4003edc:	dc402a17 	ldw	r17,168(sp)
 4003ee0:	b011883a 	mov	r8,r22
 4003ee4:	1c07c83a 	sub	r3,r3,r16
 4003ee8:	d8c02e15 	stw	r3,184(sp)
 4003eec:	00005906 	br	4004054 <___vfprintf_internal_r+0x71c>
 4003ef0:	18c03fcc 	andi	r3,r3,255
 4003ef4:	1806fa1e 	bne	r3,zero,4005ae0 <___vfprintf_internal_r+0x21a8>
 4003ef8:	9080020c 	andi	r2,r18,8
 4003efc:	10048a26 	beq	r2,zero,4005128 <___vfprintf_internal_r+0x17f0>
 4003f00:	d8c02d17 	ldw	r3,180(sp)
 4003f04:	d9002d17 	ldw	r4,180(sp)
 4003f08:	d9402d17 	ldw	r5,180(sp)
 4003f0c:	18c00017 	ldw	r3,0(r3)
 4003f10:	21000117 	ldw	r4,4(r4)
 4003f14:	29400204 	addi	r5,r5,8
 4003f18:	d8c03615 	stw	r3,216(sp)
 4003f1c:	d9003815 	stw	r4,224(sp)
 4003f20:	d9402d15 	stw	r5,180(sp)
 4003f24:	d9003617 	ldw	r4,216(sp)
 4003f28:	d9403817 	ldw	r5,224(sp)
 4003f2c:	da003d15 	stw	r8,244(sp)
 4003f30:	04000044 	movi	r16,1
 4003f34:	400ab580 	call	400ab58 <__fpclassifyd>
 4003f38:	da003d17 	ldw	r8,244(sp)
 4003f3c:	14041f1e 	bne	r2,r16,4004fbc <___vfprintf_internal_r+0x1684>
 4003f40:	d9003617 	ldw	r4,216(sp)
 4003f44:	d9403817 	ldw	r5,224(sp)
 4003f48:	000d883a 	mov	r6,zero
 4003f4c:	000f883a 	mov	r7,zero
 4003f50:	400ffc80 	call	400ffc8 <__ledf2>
 4003f54:	da003d17 	ldw	r8,244(sp)
 4003f58:	1005be16 	blt	r2,zero,4005654 <___vfprintf_internal_r+0x1d1c>
 4003f5c:	df002783 	ldbu	fp,158(sp)
 4003f60:	008011c4 	movi	r2,71
 4003f64:	1445330e 	bge	r2,r17,4005434 <___vfprintf_internal_r+0x1afc>
 4003f68:	040100b4 	movhi	r16,1026
 4003f6c:	8432c304 	addi	r16,r16,-13556
 4003f70:	00c000c4 	movi	r3,3
 4003f74:	00bfdfc4 	movi	r2,-129
 4003f78:	d8c02a15 	stw	r3,168(sp)
 4003f7c:	90a4703a 	and	r18,r18,r2
 4003f80:	d8c02e15 	stw	r3,184(sp)
 4003f84:	d8002915 	stw	zero,164(sp)
 4003f88:	d8003215 	stw	zero,200(sp)
 4003f8c:	00003706 	br	400406c <___vfprintf_internal_r+0x734>
 4003f90:	94800214 	ori	r18,r18,8
 4003f94:	ac400007 	ldb	r17,0(r21)
 4003f98:	003ec806 	br	4003abc <__alt_mem_onchip_memory2_0+0xfc001abc>
 4003f9c:	18c03fcc 	andi	r3,r3,255
 4003fa0:	1806db1e 	bne	r3,zero,4005b10 <___vfprintf_internal_r+0x21d8>
 4003fa4:	94800414 	ori	r18,r18,16
 4003fa8:	9080080c 	andi	r2,r18,32
 4003fac:	1002d826 	beq	r2,zero,4004b10 <___vfprintf_internal_r+0x11d8>
 4003fb0:	d9402d17 	ldw	r5,180(sp)
 4003fb4:	d8c02917 	ldw	r3,164(sp)
 4003fb8:	d8002785 	stb	zero,158(sp)
 4003fbc:	28800204 	addi	r2,r5,8
 4003fc0:	2cc00017 	ldw	r19,0(r5)
 4003fc4:	2d800117 	ldw	r22,4(r5)
 4003fc8:	18048f16 	blt	r3,zero,4005208 <___vfprintf_internal_r+0x18d0>
 4003fcc:	013fdfc4 	movi	r4,-129
 4003fd0:	9d86b03a 	or	r3,r19,r22
 4003fd4:	d8802d15 	stw	r2,180(sp)
 4003fd8:	9124703a 	and	r18,r18,r4
 4003fdc:	1802d91e 	bne	r3,zero,4004b44 <___vfprintf_internal_r+0x120c>
 4003fe0:	d8c02917 	ldw	r3,164(sp)
 4003fe4:	0039883a 	mov	fp,zero
 4003fe8:	1805c326 	beq	r3,zero,40056f8 <___vfprintf_internal_r+0x1dc0>
 4003fec:	0027883a 	mov	r19,zero
 4003ff0:	002d883a 	mov	r22,zero
 4003ff4:	dc001e04 	addi	r16,sp,120
 4003ff8:	9806d0fa 	srli	r3,r19,3
 4003ffc:	b008977a 	slli	r4,r22,29
 4004000:	b02cd0fa 	srli	r22,r22,3
 4004004:	9cc001cc 	andi	r19,r19,7
 4004008:	98800c04 	addi	r2,r19,48
 400400c:	843fffc4 	addi	r16,r16,-1
 4004010:	20e6b03a 	or	r19,r4,r3
 4004014:	80800005 	stb	r2,0(r16)
 4004018:	9d86b03a 	or	r3,r19,r22
 400401c:	183ff61e 	bne	r3,zero,4003ff8 <__alt_mem_onchip_memory2_0+0xfc001ff8>
 4004020:	90c0004c 	andi	r3,r18,1
 4004024:	18013b26 	beq	r3,zero,4004514 <___vfprintf_internal_r+0xbdc>
 4004028:	10803fcc 	andi	r2,r2,255
 400402c:	1080201c 	xori	r2,r2,128
 4004030:	10bfe004 	addi	r2,r2,-128
 4004034:	00c00c04 	movi	r3,48
 4004038:	10c13626 	beq	r2,r3,4004514 <___vfprintf_internal_r+0xbdc>
 400403c:	80ffffc5 	stb	r3,-1(r16)
 4004040:	d8c02817 	ldw	r3,160(sp)
 4004044:	80bfffc4 	addi	r2,r16,-1
 4004048:	1021883a 	mov	r16,r2
 400404c:	1887c83a 	sub	r3,r3,r2
 4004050:	d8c02e15 	stw	r3,184(sp)
 4004054:	d8802e17 	ldw	r2,184(sp)
 4004058:	d9002917 	ldw	r4,164(sp)
 400405c:	1100010e 	bge	r2,r4,4004064 <___vfprintf_internal_r+0x72c>
 4004060:	2005883a 	mov	r2,r4
 4004064:	d8802a15 	stw	r2,168(sp)
 4004068:	d8003215 	stw	zero,200(sp)
 400406c:	e7003fcc 	andi	fp,fp,255
 4004070:	e700201c 	xori	fp,fp,128
 4004074:	e73fe004 	addi	fp,fp,-128
 4004078:	e0000326 	beq	fp,zero,4004088 <___vfprintf_internal_r+0x750>
 400407c:	d8c02a17 	ldw	r3,168(sp)
 4004080:	18c00044 	addi	r3,r3,1
 4004084:	d8c02a15 	stw	r3,168(sp)
 4004088:	90c0008c 	andi	r3,r18,2
 400408c:	d8c02b15 	stw	r3,172(sp)
 4004090:	18000326 	beq	r3,zero,40040a0 <___vfprintf_internal_r+0x768>
 4004094:	d8c02a17 	ldw	r3,168(sp)
 4004098:	18c00084 	addi	r3,r3,2
 400409c:	d8c02a15 	stw	r3,168(sp)
 40040a0:	90c0210c 	andi	r3,r18,132
 40040a4:	d8c03015 	stw	r3,192(sp)
 40040a8:	1801a31e 	bne	r3,zero,4004738 <___vfprintf_internal_r+0xe00>
 40040ac:	d9003117 	ldw	r4,196(sp)
 40040b0:	d8c02a17 	ldw	r3,168(sp)
 40040b4:	20e7c83a 	sub	r19,r4,r3
 40040b8:	04c19f0e 	bge	zero,r19,4004738 <___vfprintf_internal_r+0xe00>
 40040bc:	02400404 	movi	r9,16
 40040c0:	d8c02017 	ldw	r3,128(sp)
 40040c4:	d8801f17 	ldw	r2,124(sp)
 40040c8:	4cc50d0e 	bge	r9,r19,4005500 <___vfprintf_internal_r+0x1bc8>
 40040cc:	014100b4 	movhi	r5,1026
 40040d0:	2972de84 	addi	r5,r5,-13446
 40040d4:	dc403b15 	stw	r17,236(sp)
 40040d8:	d9403515 	stw	r5,212(sp)
 40040dc:	9823883a 	mov	r17,r19
 40040e0:	482d883a 	mov	r22,r9
 40040e4:	9027883a 	mov	r19,r18
 40040e8:	070001c4 	movi	fp,7
 40040ec:	8025883a 	mov	r18,r16
 40040f0:	dc002c17 	ldw	r16,176(sp)
 40040f4:	00000306 	br	4004104 <___vfprintf_internal_r+0x7cc>
 40040f8:	8c7ffc04 	addi	r17,r17,-16
 40040fc:	42000204 	addi	r8,r8,8
 4004100:	b440130e 	bge	r22,r17,4004150 <___vfprintf_internal_r+0x818>
 4004104:	010100b4 	movhi	r4,1026
 4004108:	18c00404 	addi	r3,r3,16
 400410c:	10800044 	addi	r2,r2,1
 4004110:	2132de84 	addi	r4,r4,-13446
 4004114:	41000015 	stw	r4,0(r8)
 4004118:	45800115 	stw	r22,4(r8)
 400411c:	d8c02015 	stw	r3,128(sp)
 4004120:	d8801f15 	stw	r2,124(sp)
 4004124:	e0bff40e 	bge	fp,r2,40040f8 <__alt_mem_onchip_memory2_0+0xfc0020f8>
 4004128:	d9801e04 	addi	r6,sp,120
 400412c:	b80b883a 	mov	r5,r23
 4004130:	8009883a 	mov	r4,r16
 4004134:	400c3400 	call	400c340 <__sprint_r>
 4004138:	103f011e 	bne	r2,zero,4003d40 <__alt_mem_onchip_memory2_0+0xfc001d40>
 400413c:	8c7ffc04 	addi	r17,r17,-16
 4004140:	d8c02017 	ldw	r3,128(sp)
 4004144:	d8801f17 	ldw	r2,124(sp)
 4004148:	da000404 	addi	r8,sp,16
 400414c:	b47fed16 	blt	r22,r17,4004104 <__alt_mem_onchip_memory2_0+0xfc002104>
 4004150:	9021883a 	mov	r16,r18
 4004154:	9825883a 	mov	r18,r19
 4004158:	8827883a 	mov	r19,r17
 400415c:	dc403b17 	ldw	r17,236(sp)
 4004160:	d9403517 	ldw	r5,212(sp)
 4004164:	98c7883a 	add	r3,r19,r3
 4004168:	10800044 	addi	r2,r2,1
 400416c:	41400015 	stw	r5,0(r8)
 4004170:	44c00115 	stw	r19,4(r8)
 4004174:	d8c02015 	stw	r3,128(sp)
 4004178:	d8801f15 	stw	r2,124(sp)
 400417c:	010001c4 	movi	r4,7
 4004180:	2082a316 	blt	r4,r2,4004c10 <___vfprintf_internal_r+0x12d8>
 4004184:	df002787 	ldb	fp,158(sp)
 4004188:	42000204 	addi	r8,r8,8
 400418c:	e0000c26 	beq	fp,zero,40041c0 <___vfprintf_internal_r+0x888>
 4004190:	d8801f17 	ldw	r2,124(sp)
 4004194:	d9002784 	addi	r4,sp,158
 4004198:	18c00044 	addi	r3,r3,1
 400419c:	10800044 	addi	r2,r2,1
 40041a0:	41000015 	stw	r4,0(r8)
 40041a4:	01000044 	movi	r4,1
 40041a8:	41000115 	stw	r4,4(r8)
 40041ac:	d8c02015 	stw	r3,128(sp)
 40041b0:	d8801f15 	stw	r2,124(sp)
 40041b4:	010001c4 	movi	r4,7
 40041b8:	20823c16 	blt	r4,r2,4004aac <___vfprintf_internal_r+0x1174>
 40041bc:	42000204 	addi	r8,r8,8
 40041c0:	d8802b17 	ldw	r2,172(sp)
 40041c4:	10000c26 	beq	r2,zero,40041f8 <___vfprintf_internal_r+0x8c0>
 40041c8:	d8801f17 	ldw	r2,124(sp)
 40041cc:	d9002704 	addi	r4,sp,156
 40041d0:	18c00084 	addi	r3,r3,2
 40041d4:	10800044 	addi	r2,r2,1
 40041d8:	41000015 	stw	r4,0(r8)
 40041dc:	01000084 	movi	r4,2
 40041e0:	41000115 	stw	r4,4(r8)
 40041e4:	d8c02015 	stw	r3,128(sp)
 40041e8:	d8801f15 	stw	r2,124(sp)
 40041ec:	010001c4 	movi	r4,7
 40041f0:	20823616 	blt	r4,r2,4004acc <___vfprintf_internal_r+0x1194>
 40041f4:	42000204 	addi	r8,r8,8
 40041f8:	d9003017 	ldw	r4,192(sp)
 40041fc:	00802004 	movi	r2,128
 4004200:	20819926 	beq	r4,r2,4004868 <___vfprintf_internal_r+0xf30>
 4004204:	d9402917 	ldw	r5,164(sp)
 4004208:	d8802e17 	ldw	r2,184(sp)
 400420c:	28adc83a 	sub	r22,r5,r2
 4004210:	0580310e 	bge	zero,r22,40042d8 <___vfprintf_internal_r+0x9a0>
 4004214:	07000404 	movi	fp,16
 4004218:	d8801f17 	ldw	r2,124(sp)
 400421c:	e584140e 	bge	fp,r22,4005270 <___vfprintf_internal_r+0x1938>
 4004220:	014100b4 	movhi	r5,1026
 4004224:	2972da84 	addi	r5,r5,-13462
 4004228:	dc402915 	stw	r17,164(sp)
 400422c:	d9402b15 	stw	r5,172(sp)
 4004230:	b023883a 	mov	r17,r22
 4004234:	04c001c4 	movi	r19,7
 4004238:	a82d883a 	mov	r22,r21
 400423c:	902b883a 	mov	r21,r18
 4004240:	8025883a 	mov	r18,r16
 4004244:	dc002c17 	ldw	r16,176(sp)
 4004248:	00000306 	br	4004258 <___vfprintf_internal_r+0x920>
 400424c:	8c7ffc04 	addi	r17,r17,-16
 4004250:	42000204 	addi	r8,r8,8
 4004254:	e440110e 	bge	fp,r17,400429c <___vfprintf_internal_r+0x964>
 4004258:	18c00404 	addi	r3,r3,16
 400425c:	10800044 	addi	r2,r2,1
 4004260:	45000015 	stw	r20,0(r8)
 4004264:	47000115 	stw	fp,4(r8)
 4004268:	d8c02015 	stw	r3,128(sp)
 400426c:	d8801f15 	stw	r2,124(sp)
 4004270:	98bff60e 	bge	r19,r2,400424c <__alt_mem_onchip_memory2_0+0xfc00224c>
 4004274:	d9801e04 	addi	r6,sp,120
 4004278:	b80b883a 	mov	r5,r23
 400427c:	8009883a 	mov	r4,r16
 4004280:	400c3400 	call	400c340 <__sprint_r>
 4004284:	103eae1e 	bne	r2,zero,4003d40 <__alt_mem_onchip_memory2_0+0xfc001d40>
 4004288:	8c7ffc04 	addi	r17,r17,-16
 400428c:	d8c02017 	ldw	r3,128(sp)
 4004290:	d8801f17 	ldw	r2,124(sp)
 4004294:	da000404 	addi	r8,sp,16
 4004298:	e47fef16 	blt	fp,r17,4004258 <__alt_mem_onchip_memory2_0+0xfc002258>
 400429c:	9021883a 	mov	r16,r18
 40042a0:	a825883a 	mov	r18,r21
 40042a4:	b02b883a 	mov	r21,r22
 40042a8:	882d883a 	mov	r22,r17
 40042ac:	dc402917 	ldw	r17,164(sp)
 40042b0:	d9002b17 	ldw	r4,172(sp)
 40042b4:	1d87883a 	add	r3,r3,r22
 40042b8:	10800044 	addi	r2,r2,1
 40042bc:	41000015 	stw	r4,0(r8)
 40042c0:	45800115 	stw	r22,4(r8)
 40042c4:	d8c02015 	stw	r3,128(sp)
 40042c8:	d8801f15 	stw	r2,124(sp)
 40042cc:	010001c4 	movi	r4,7
 40042d0:	2081ee16 	blt	r4,r2,4004a8c <___vfprintf_internal_r+0x1154>
 40042d4:	42000204 	addi	r8,r8,8
 40042d8:	9080400c 	andi	r2,r18,256
 40042dc:	1001181e 	bne	r2,zero,4004740 <___vfprintf_internal_r+0xe08>
 40042e0:	d9402e17 	ldw	r5,184(sp)
 40042e4:	d8801f17 	ldw	r2,124(sp)
 40042e8:	44000015 	stw	r16,0(r8)
 40042ec:	1947883a 	add	r3,r3,r5
 40042f0:	10800044 	addi	r2,r2,1
 40042f4:	41400115 	stw	r5,4(r8)
 40042f8:	d8c02015 	stw	r3,128(sp)
 40042fc:	d8801f15 	stw	r2,124(sp)
 4004300:	010001c4 	movi	r4,7
 4004304:	2081d316 	blt	r4,r2,4004a54 <___vfprintf_internal_r+0x111c>
 4004308:	42000204 	addi	r8,r8,8
 400430c:	9480010c 	andi	r18,r18,4
 4004310:	90003226 	beq	r18,zero,40043dc <___vfprintf_internal_r+0xaa4>
 4004314:	d9403117 	ldw	r5,196(sp)
 4004318:	d8802a17 	ldw	r2,168(sp)
 400431c:	28a1c83a 	sub	r16,r5,r2
 4004320:	04002e0e 	bge	zero,r16,40043dc <___vfprintf_internal_r+0xaa4>
 4004324:	04400404 	movi	r17,16
 4004328:	d8801f17 	ldw	r2,124(sp)
 400432c:	8c04a20e 	bge	r17,r16,40055b8 <___vfprintf_internal_r+0x1c80>
 4004330:	014100b4 	movhi	r5,1026
 4004334:	2972de84 	addi	r5,r5,-13446
 4004338:	d9403515 	stw	r5,212(sp)
 400433c:	048001c4 	movi	r18,7
 4004340:	dcc02c17 	ldw	r19,176(sp)
 4004344:	00000306 	br	4004354 <___vfprintf_internal_r+0xa1c>
 4004348:	843ffc04 	addi	r16,r16,-16
 400434c:	42000204 	addi	r8,r8,8
 4004350:	8c00130e 	bge	r17,r16,40043a0 <___vfprintf_internal_r+0xa68>
 4004354:	010100b4 	movhi	r4,1026
 4004358:	18c00404 	addi	r3,r3,16
 400435c:	10800044 	addi	r2,r2,1
 4004360:	2132de84 	addi	r4,r4,-13446
 4004364:	41000015 	stw	r4,0(r8)
 4004368:	44400115 	stw	r17,4(r8)
 400436c:	d8c02015 	stw	r3,128(sp)
 4004370:	d8801f15 	stw	r2,124(sp)
 4004374:	90bff40e 	bge	r18,r2,4004348 <__alt_mem_onchip_memory2_0+0xfc002348>
 4004378:	d9801e04 	addi	r6,sp,120
 400437c:	b80b883a 	mov	r5,r23
 4004380:	9809883a 	mov	r4,r19
 4004384:	400c3400 	call	400c340 <__sprint_r>
 4004388:	103e6d1e 	bne	r2,zero,4003d40 <__alt_mem_onchip_memory2_0+0xfc001d40>
 400438c:	843ffc04 	addi	r16,r16,-16
 4004390:	d8c02017 	ldw	r3,128(sp)
 4004394:	d8801f17 	ldw	r2,124(sp)
 4004398:	da000404 	addi	r8,sp,16
 400439c:	8c3fed16 	blt	r17,r16,4004354 <__alt_mem_onchip_memory2_0+0xfc002354>
 40043a0:	d9403517 	ldw	r5,212(sp)
 40043a4:	1c07883a 	add	r3,r3,r16
 40043a8:	10800044 	addi	r2,r2,1
 40043ac:	41400015 	stw	r5,0(r8)
 40043b0:	44000115 	stw	r16,4(r8)
 40043b4:	d8c02015 	stw	r3,128(sp)
 40043b8:	d8801f15 	stw	r2,124(sp)
 40043bc:	010001c4 	movi	r4,7
 40043c0:	2080060e 	bge	r4,r2,40043dc <___vfprintf_internal_r+0xaa4>
 40043c4:	d9002c17 	ldw	r4,176(sp)
 40043c8:	d9801e04 	addi	r6,sp,120
 40043cc:	b80b883a 	mov	r5,r23
 40043d0:	400c3400 	call	400c340 <__sprint_r>
 40043d4:	103e5a1e 	bne	r2,zero,4003d40 <__alt_mem_onchip_memory2_0+0xfc001d40>
 40043d8:	d8c02017 	ldw	r3,128(sp)
 40043dc:	d8803117 	ldw	r2,196(sp)
 40043e0:	d9002a17 	ldw	r4,168(sp)
 40043e4:	1100010e 	bge	r2,r4,40043ec <___vfprintf_internal_r+0xab4>
 40043e8:	2005883a 	mov	r2,r4
 40043ec:	d9402f17 	ldw	r5,188(sp)
 40043f0:	288b883a 	add	r5,r5,r2
 40043f4:	d9402f15 	stw	r5,188(sp)
 40043f8:	18019e1e 	bne	r3,zero,4004a74 <___vfprintf_internal_r+0x113c>
 40043fc:	a8800007 	ldb	r2,0(r21)
 4004400:	d8001f15 	stw	zero,124(sp)
 4004404:	da000404 	addi	r8,sp,16
 4004408:	103d851e 	bne	r2,zero,4003a20 <__alt_mem_onchip_memory2_0+0xfc001a20>
 400440c:	a821883a 	mov	r16,r21
 4004410:	003d9b06 	br	4003a80 <__alt_mem_onchip_memory2_0+0xfc001a80>
 4004414:	18c03fcc 	andi	r3,r3,255
 4004418:	1805c11e 	bne	r3,zero,4005b20 <___vfprintf_internal_r+0x21e8>
 400441c:	94800414 	ori	r18,r18,16
 4004420:	9080080c 	andi	r2,r18,32
 4004424:	10020c26 	beq	r2,zero,4004c58 <___vfprintf_internal_r+0x1320>
 4004428:	d8802d17 	ldw	r2,180(sp)
 400442c:	d9002917 	ldw	r4,164(sp)
 4004430:	d8002785 	stb	zero,158(sp)
 4004434:	10c00204 	addi	r3,r2,8
 4004438:	14c00017 	ldw	r19,0(r2)
 400443c:	15800117 	ldw	r22,4(r2)
 4004440:	20040f16 	blt	r4,zero,4005480 <___vfprintf_internal_r+0x1b48>
 4004444:	013fdfc4 	movi	r4,-129
 4004448:	9d84b03a 	or	r2,r19,r22
 400444c:	d8c02d15 	stw	r3,180(sp)
 4004450:	9124703a 	and	r18,r18,r4
 4004454:	0039883a 	mov	fp,zero
 4004458:	103e891e 	bne	r2,zero,4003e80 <__alt_mem_onchip_memory2_0+0xfc001e80>
 400445c:	d9002917 	ldw	r4,164(sp)
 4004460:	2002c11e 	bne	r4,zero,4004f68 <___vfprintf_internal_r+0x1630>
 4004464:	d8002915 	stw	zero,164(sp)
 4004468:	d8002e15 	stw	zero,184(sp)
 400446c:	dc001e04 	addi	r16,sp,120
 4004470:	003ef806 	br	4004054 <__alt_mem_onchip_memory2_0+0xfc002054>
 4004474:	18c03fcc 	andi	r3,r3,255
 4004478:	18059d1e 	bne	r3,zero,4005af0 <___vfprintf_internal_r+0x21b8>
 400447c:	014100b4 	movhi	r5,1026
 4004480:	2972c604 	addi	r5,r5,-13544
 4004484:	d9403915 	stw	r5,228(sp)
 4004488:	9080080c 	andi	r2,r18,32
 400448c:	10005226 	beq	r2,zero,40045d8 <___vfprintf_internal_r+0xca0>
 4004490:	d8802d17 	ldw	r2,180(sp)
 4004494:	14c00017 	ldw	r19,0(r2)
 4004498:	15800117 	ldw	r22,4(r2)
 400449c:	10800204 	addi	r2,r2,8
 40044a0:	d8802d15 	stw	r2,180(sp)
 40044a4:	9080004c 	andi	r2,r18,1
 40044a8:	10019026 	beq	r2,zero,4004aec <___vfprintf_internal_r+0x11b4>
 40044ac:	9d84b03a 	or	r2,r19,r22
 40044b0:	10036926 	beq	r2,zero,4005258 <___vfprintf_internal_r+0x1920>
 40044b4:	d8c02917 	ldw	r3,164(sp)
 40044b8:	00800c04 	movi	r2,48
 40044bc:	d8802705 	stb	r2,156(sp)
 40044c0:	dc402745 	stb	r17,157(sp)
 40044c4:	d8002785 	stb	zero,158(sp)
 40044c8:	90800094 	ori	r2,r18,2
 40044cc:	18045d16 	blt	r3,zero,4005644 <___vfprintf_internal_r+0x1d0c>
 40044d0:	00bfdfc4 	movi	r2,-129
 40044d4:	90a4703a 	and	r18,r18,r2
 40044d8:	94800094 	ori	r18,r18,2
 40044dc:	0039883a 	mov	fp,zero
 40044e0:	d9003917 	ldw	r4,228(sp)
 40044e4:	dc001e04 	addi	r16,sp,120
 40044e8:	988003cc 	andi	r2,r19,15
 40044ec:	b006973a 	slli	r3,r22,28
 40044f0:	2085883a 	add	r2,r4,r2
 40044f4:	9826d13a 	srli	r19,r19,4
 40044f8:	10800003 	ldbu	r2,0(r2)
 40044fc:	b02cd13a 	srli	r22,r22,4
 4004500:	843fffc4 	addi	r16,r16,-1
 4004504:	1ce6b03a 	or	r19,r3,r19
 4004508:	80800005 	stb	r2,0(r16)
 400450c:	9d84b03a 	or	r2,r19,r22
 4004510:	103ff51e 	bne	r2,zero,40044e8 <__alt_mem_onchip_memory2_0+0xfc0024e8>
 4004514:	d8c02817 	ldw	r3,160(sp)
 4004518:	1c07c83a 	sub	r3,r3,r16
 400451c:	d8c02e15 	stw	r3,184(sp)
 4004520:	003ecc06 	br	4004054 <__alt_mem_onchip_memory2_0+0xfc002054>
 4004524:	18c03fcc 	andi	r3,r3,255
 4004528:	183e9f26 	beq	r3,zero,4003fa8 <__alt_mem_onchip_memory2_0+0xfc001fa8>
 400452c:	d9c02785 	stb	r7,158(sp)
 4004530:	003e9d06 	br	4003fa8 <__alt_mem_onchip_memory2_0+0xfc001fa8>
 4004534:	00c00044 	movi	r3,1
 4004538:	01c00ac4 	movi	r7,43
 400453c:	ac400007 	ldb	r17,0(r21)
 4004540:	003d5e06 	br	4003abc <__alt_mem_onchip_memory2_0+0xfc001abc>
 4004544:	94800814 	ori	r18,r18,32
 4004548:	ac400007 	ldb	r17,0(r21)
 400454c:	003d5b06 	br	4003abc <__alt_mem_onchip_memory2_0+0xfc001abc>
 4004550:	d8c02d17 	ldw	r3,180(sp)
 4004554:	d8002785 	stb	zero,158(sp)
 4004558:	1c000017 	ldw	r16,0(r3)
 400455c:	1cc00104 	addi	r19,r3,4
 4004560:	80041926 	beq	r16,zero,40055c8 <___vfprintf_internal_r+0x1c90>
 4004564:	d9002917 	ldw	r4,164(sp)
 4004568:	2003d016 	blt	r4,zero,40054ac <___vfprintf_internal_r+0x1b74>
 400456c:	200d883a 	mov	r6,r4
 4004570:	000b883a 	mov	r5,zero
 4004574:	8009883a 	mov	r4,r16
 4004578:	da003d15 	stw	r8,244(sp)
 400457c:	40091480 	call	4009148 <memchr>
 4004580:	da003d17 	ldw	r8,244(sp)
 4004584:	10045426 	beq	r2,zero,40056d8 <___vfprintf_internal_r+0x1da0>
 4004588:	1405c83a 	sub	r2,r2,r16
 400458c:	d8802e15 	stw	r2,184(sp)
 4004590:	1003cc16 	blt	r2,zero,40054c4 <___vfprintf_internal_r+0x1b8c>
 4004594:	df002783 	ldbu	fp,158(sp)
 4004598:	d8802a15 	stw	r2,168(sp)
 400459c:	dcc02d15 	stw	r19,180(sp)
 40045a0:	d8002915 	stw	zero,164(sp)
 40045a4:	d8003215 	stw	zero,200(sp)
 40045a8:	003eb006 	br	400406c <__alt_mem_onchip_memory2_0+0xfc00206c>
 40045ac:	18c03fcc 	andi	r3,r3,255
 40045b0:	183f9b26 	beq	r3,zero,4004420 <__alt_mem_onchip_memory2_0+0xfc002420>
 40045b4:	d9c02785 	stb	r7,158(sp)
 40045b8:	003f9906 	br	4004420 <__alt_mem_onchip_memory2_0+0xfc002420>
 40045bc:	18c03fcc 	andi	r3,r3,255
 40045c0:	1805551e 	bne	r3,zero,4005b18 <___vfprintf_internal_r+0x21e0>
 40045c4:	014100b4 	movhi	r5,1026
 40045c8:	2972cb04 	addi	r5,r5,-13524
 40045cc:	d9403915 	stw	r5,228(sp)
 40045d0:	9080080c 	andi	r2,r18,32
 40045d4:	103fae1e 	bne	r2,zero,4004490 <__alt_mem_onchip_memory2_0+0xfc002490>
 40045d8:	9080040c 	andi	r2,r18,16
 40045dc:	1002de26 	beq	r2,zero,4005158 <___vfprintf_internal_r+0x1820>
 40045e0:	d8c02d17 	ldw	r3,180(sp)
 40045e4:	002d883a 	mov	r22,zero
 40045e8:	1cc00017 	ldw	r19,0(r3)
 40045ec:	18c00104 	addi	r3,r3,4
 40045f0:	d8c02d15 	stw	r3,180(sp)
 40045f4:	003fab06 	br	40044a4 <__alt_mem_onchip_memory2_0+0xfc0024a4>
 40045f8:	38803fcc 	andi	r2,r7,255
 40045fc:	1080201c 	xori	r2,r2,128
 4004600:	10bfe004 	addi	r2,r2,-128
 4004604:	1002d21e 	bne	r2,zero,4005150 <___vfprintf_internal_r+0x1818>
 4004608:	00c00044 	movi	r3,1
 400460c:	01c00804 	movi	r7,32
 4004610:	ac400007 	ldb	r17,0(r21)
 4004614:	003d2906 	br	4003abc <__alt_mem_onchip_memory2_0+0xfc001abc>
 4004618:	94800054 	ori	r18,r18,1
 400461c:	ac400007 	ldb	r17,0(r21)
 4004620:	003d2606 	br	4003abc <__alt_mem_onchip_memory2_0+0xfc001abc>
 4004624:	18c03fcc 	andi	r3,r3,255
 4004628:	183e0526 	beq	r3,zero,4003e40 <__alt_mem_onchip_memory2_0+0xfc001e40>
 400462c:	d9c02785 	stb	r7,158(sp)
 4004630:	003e0306 	br	4003e40 <__alt_mem_onchip_memory2_0+0xfc001e40>
 4004634:	94801014 	ori	r18,r18,64
 4004638:	ac400007 	ldb	r17,0(r21)
 400463c:	003d1f06 	br	4003abc <__alt_mem_onchip_memory2_0+0xfc001abc>
 4004640:	ac400007 	ldb	r17,0(r21)
 4004644:	8a438726 	beq	r17,r9,4005464 <___vfprintf_internal_r+0x1b2c>
 4004648:	94800414 	ori	r18,r18,16
 400464c:	003d1b06 	br	4003abc <__alt_mem_onchip_memory2_0+0xfc001abc>
 4004650:	18c03fcc 	andi	r3,r3,255
 4004654:	1805341e 	bne	r3,zero,4005b28 <___vfprintf_internal_r+0x21f0>
 4004658:	9080080c 	andi	r2,r18,32
 400465c:	1002cd26 	beq	r2,zero,4005194 <___vfprintf_internal_r+0x185c>
 4004660:	d9402d17 	ldw	r5,180(sp)
 4004664:	d9002f17 	ldw	r4,188(sp)
 4004668:	28800017 	ldw	r2,0(r5)
 400466c:	2007d7fa 	srai	r3,r4,31
 4004670:	29400104 	addi	r5,r5,4
 4004674:	d9402d15 	stw	r5,180(sp)
 4004678:	11000015 	stw	r4,0(r2)
 400467c:	10c00115 	stw	r3,4(r2)
 4004680:	003ce506 	br	4003a18 <__alt_mem_onchip_memory2_0+0xfc001a18>
 4004684:	d8c02d17 	ldw	r3,180(sp)
 4004688:	d9002d17 	ldw	r4,180(sp)
 400468c:	d8002785 	stb	zero,158(sp)
 4004690:	18800017 	ldw	r2,0(r3)
 4004694:	21000104 	addi	r4,r4,4
 4004698:	00c00044 	movi	r3,1
 400469c:	d8c02a15 	stw	r3,168(sp)
 40046a0:	d8801405 	stb	r2,80(sp)
 40046a4:	d9002d15 	stw	r4,180(sp)
 40046a8:	d8c02e15 	stw	r3,184(sp)
 40046ac:	d8002915 	stw	zero,164(sp)
 40046b0:	d8003215 	stw	zero,200(sp)
 40046b4:	dc001404 	addi	r16,sp,80
 40046b8:	0039883a 	mov	fp,zero
 40046bc:	003e7206 	br	4004088 <__alt_mem_onchip_memory2_0+0xfc002088>
 40046c0:	010100b4 	movhi	r4,1026
 40046c4:	2132cb04 	addi	r4,r4,-13524
 40046c8:	0039883a 	mov	fp,zero
 40046cc:	d9003915 	stw	r4,228(sp)
 40046d0:	04401e04 	movi	r17,120
 40046d4:	003f8206 	br	40044e0 <__alt_mem_onchip_memory2_0+0xfc0024e0>
 40046d8:	18c03fcc 	andi	r3,r3,255
 40046dc:	1805061e 	bne	r3,zero,4005af8 <___vfprintf_internal_r+0x21c0>
 40046e0:	883d9126 	beq	r17,zero,4003d28 <__alt_mem_onchip_memory2_0+0xfc001d28>
 40046e4:	00c00044 	movi	r3,1
 40046e8:	d8c02a15 	stw	r3,168(sp)
 40046ec:	dc401405 	stb	r17,80(sp)
 40046f0:	d8002785 	stb	zero,158(sp)
 40046f4:	003fec06 	br	40046a8 <__alt_mem_onchip_memory2_0+0xfc0026a8>
 40046f8:	014100b4 	movhi	r5,1026
 40046fc:	2972cb04 	addi	r5,r5,-13524
 4004700:	d9403915 	stw	r5,228(sp)
 4004704:	d8c02d15 	stw	r3,180(sp)
 4004708:	1025883a 	mov	r18,r2
 400470c:	04401e04 	movi	r17,120
 4004710:	9d84b03a 	or	r2,r19,r22
 4004714:	1000fc1e 	bne	r2,zero,4004b08 <___vfprintf_internal_r+0x11d0>
 4004718:	0039883a 	mov	fp,zero
 400471c:	00800084 	movi	r2,2
 4004720:	10803fcc 	andi	r2,r2,255
 4004724:	00c00044 	movi	r3,1
 4004728:	10c20f26 	beq	r2,r3,4004f68 <___vfprintf_internal_r+0x1630>
 400472c:	00c00084 	movi	r3,2
 4004730:	10fd6326 	beq	r2,r3,4003cc0 <__alt_mem_onchip_memory2_0+0xfc001cc0>
 4004734:	003e2d06 	br	4003fec <__alt_mem_onchip_memory2_0+0xfc001fec>
 4004738:	d8c02017 	ldw	r3,128(sp)
 400473c:	003e9306 	br	400418c <__alt_mem_onchip_memory2_0+0xfc00218c>
 4004740:	00801944 	movi	r2,101
 4004744:	14407e0e 	bge	r2,r17,4004940 <___vfprintf_internal_r+0x1008>
 4004748:	d9003617 	ldw	r4,216(sp)
 400474c:	d9403817 	ldw	r5,224(sp)
 4004750:	000d883a 	mov	r6,zero
 4004754:	000f883a 	mov	r7,zero
 4004758:	d8c03c15 	stw	r3,240(sp)
 400475c:	da003d15 	stw	r8,244(sp)
 4004760:	400fe640 	call	400fe64 <__eqdf2>
 4004764:	d8c03c17 	ldw	r3,240(sp)
 4004768:	da003d17 	ldw	r8,244(sp)
 400476c:	1000f71e 	bne	r2,zero,4004b4c <___vfprintf_internal_r+0x1214>
 4004770:	d8801f17 	ldw	r2,124(sp)
 4004774:	010100b4 	movhi	r4,1026
 4004778:	2132d204 	addi	r4,r4,-13496
 400477c:	18c00044 	addi	r3,r3,1
 4004780:	10800044 	addi	r2,r2,1
 4004784:	41000015 	stw	r4,0(r8)
 4004788:	01000044 	movi	r4,1
 400478c:	41000115 	stw	r4,4(r8)
 4004790:	d8c02015 	stw	r3,128(sp)
 4004794:	d8801f15 	stw	r2,124(sp)
 4004798:	010001c4 	movi	r4,7
 400479c:	2082b816 	blt	r4,r2,4005280 <___vfprintf_internal_r+0x1948>
 40047a0:	42000204 	addi	r8,r8,8
 40047a4:	d8802617 	ldw	r2,152(sp)
 40047a8:	d9403317 	ldw	r5,204(sp)
 40047ac:	11400216 	blt	r2,r5,40047b8 <___vfprintf_internal_r+0xe80>
 40047b0:	9080004c 	andi	r2,r18,1
 40047b4:	103ed526 	beq	r2,zero,400430c <__alt_mem_onchip_memory2_0+0xfc00230c>
 40047b8:	d8803717 	ldw	r2,220(sp)
 40047bc:	d9003417 	ldw	r4,208(sp)
 40047c0:	d9403717 	ldw	r5,220(sp)
 40047c4:	1887883a 	add	r3,r3,r2
 40047c8:	d8801f17 	ldw	r2,124(sp)
 40047cc:	41000015 	stw	r4,0(r8)
 40047d0:	41400115 	stw	r5,4(r8)
 40047d4:	10800044 	addi	r2,r2,1
 40047d8:	d8c02015 	stw	r3,128(sp)
 40047dc:	d8801f15 	stw	r2,124(sp)
 40047e0:	010001c4 	movi	r4,7
 40047e4:	20832916 	blt	r4,r2,400548c <___vfprintf_internal_r+0x1b54>
 40047e8:	42000204 	addi	r8,r8,8
 40047ec:	d8803317 	ldw	r2,204(sp)
 40047f0:	143fffc4 	addi	r16,r2,-1
 40047f4:	043ec50e 	bge	zero,r16,400430c <__alt_mem_onchip_memory2_0+0xfc00230c>
 40047f8:	04400404 	movi	r17,16
 40047fc:	d8801f17 	ldw	r2,124(sp)
 4004800:	8c00880e 	bge	r17,r16,4004a24 <___vfprintf_internal_r+0x10ec>
 4004804:	014100b4 	movhi	r5,1026
 4004808:	2972da84 	addi	r5,r5,-13462
 400480c:	d9402b15 	stw	r5,172(sp)
 4004810:	058001c4 	movi	r22,7
 4004814:	dcc02c17 	ldw	r19,176(sp)
 4004818:	00000306 	br	4004828 <___vfprintf_internal_r+0xef0>
 400481c:	42000204 	addi	r8,r8,8
 4004820:	843ffc04 	addi	r16,r16,-16
 4004824:	8c00820e 	bge	r17,r16,4004a30 <___vfprintf_internal_r+0x10f8>
 4004828:	18c00404 	addi	r3,r3,16
 400482c:	10800044 	addi	r2,r2,1
 4004830:	45000015 	stw	r20,0(r8)
 4004834:	44400115 	stw	r17,4(r8)
 4004838:	d8c02015 	stw	r3,128(sp)
 400483c:	d8801f15 	stw	r2,124(sp)
 4004840:	b0bff60e 	bge	r22,r2,400481c <__alt_mem_onchip_memory2_0+0xfc00281c>
 4004844:	d9801e04 	addi	r6,sp,120
 4004848:	b80b883a 	mov	r5,r23
 400484c:	9809883a 	mov	r4,r19
 4004850:	400c3400 	call	400c340 <__sprint_r>
 4004854:	103d3a1e 	bne	r2,zero,4003d40 <__alt_mem_onchip_memory2_0+0xfc001d40>
 4004858:	d8c02017 	ldw	r3,128(sp)
 400485c:	d8801f17 	ldw	r2,124(sp)
 4004860:	da000404 	addi	r8,sp,16
 4004864:	003fee06 	br	4004820 <__alt_mem_onchip_memory2_0+0xfc002820>
 4004868:	d9403117 	ldw	r5,196(sp)
 400486c:	d8802a17 	ldw	r2,168(sp)
 4004870:	28adc83a 	sub	r22,r5,r2
 4004874:	05be630e 	bge	zero,r22,4004204 <__alt_mem_onchip_memory2_0+0xfc002204>
 4004878:	07000404 	movi	fp,16
 400487c:	d8801f17 	ldw	r2,124(sp)
 4004880:	e5838f0e 	bge	fp,r22,40056c0 <___vfprintf_internal_r+0x1d88>
 4004884:	014100b4 	movhi	r5,1026
 4004888:	2972da84 	addi	r5,r5,-13462
 400488c:	dc403015 	stw	r17,192(sp)
 4004890:	d9402b15 	stw	r5,172(sp)
 4004894:	b023883a 	mov	r17,r22
 4004898:	04c001c4 	movi	r19,7
 400489c:	a82d883a 	mov	r22,r21
 40048a0:	902b883a 	mov	r21,r18
 40048a4:	8025883a 	mov	r18,r16
 40048a8:	dc002c17 	ldw	r16,176(sp)
 40048ac:	00000306 	br	40048bc <___vfprintf_internal_r+0xf84>
 40048b0:	8c7ffc04 	addi	r17,r17,-16
 40048b4:	42000204 	addi	r8,r8,8
 40048b8:	e440110e 	bge	fp,r17,4004900 <___vfprintf_internal_r+0xfc8>
 40048bc:	18c00404 	addi	r3,r3,16
 40048c0:	10800044 	addi	r2,r2,1
 40048c4:	45000015 	stw	r20,0(r8)
 40048c8:	47000115 	stw	fp,4(r8)
 40048cc:	d8c02015 	stw	r3,128(sp)
 40048d0:	d8801f15 	stw	r2,124(sp)
 40048d4:	98bff60e 	bge	r19,r2,40048b0 <__alt_mem_onchip_memory2_0+0xfc0028b0>
 40048d8:	d9801e04 	addi	r6,sp,120
 40048dc:	b80b883a 	mov	r5,r23
 40048e0:	8009883a 	mov	r4,r16
 40048e4:	400c3400 	call	400c340 <__sprint_r>
 40048e8:	103d151e 	bne	r2,zero,4003d40 <__alt_mem_onchip_memory2_0+0xfc001d40>
 40048ec:	8c7ffc04 	addi	r17,r17,-16
 40048f0:	d8c02017 	ldw	r3,128(sp)
 40048f4:	d8801f17 	ldw	r2,124(sp)
 40048f8:	da000404 	addi	r8,sp,16
 40048fc:	e47fef16 	blt	fp,r17,40048bc <__alt_mem_onchip_memory2_0+0xfc0028bc>
 4004900:	9021883a 	mov	r16,r18
 4004904:	a825883a 	mov	r18,r21
 4004908:	b02b883a 	mov	r21,r22
 400490c:	882d883a 	mov	r22,r17
 4004910:	dc403017 	ldw	r17,192(sp)
 4004914:	d9002b17 	ldw	r4,172(sp)
 4004918:	1d87883a 	add	r3,r3,r22
 400491c:	10800044 	addi	r2,r2,1
 4004920:	41000015 	stw	r4,0(r8)
 4004924:	45800115 	stw	r22,4(r8)
 4004928:	d8c02015 	stw	r3,128(sp)
 400492c:	d8801f15 	stw	r2,124(sp)
 4004930:	010001c4 	movi	r4,7
 4004934:	20818e16 	blt	r4,r2,4004f70 <___vfprintf_internal_r+0x1638>
 4004938:	42000204 	addi	r8,r8,8
 400493c:	003e3106 	br	4004204 <__alt_mem_onchip_memory2_0+0xfc002204>
 4004940:	d9403317 	ldw	r5,204(sp)
 4004944:	00800044 	movi	r2,1
 4004948:	18c00044 	addi	r3,r3,1
 400494c:	1141530e 	bge	r2,r5,4004e9c <___vfprintf_internal_r+0x1564>
 4004950:	dc401f17 	ldw	r17,124(sp)
 4004954:	00800044 	movi	r2,1
 4004958:	40800115 	stw	r2,4(r8)
 400495c:	8c400044 	addi	r17,r17,1
 4004960:	44000015 	stw	r16,0(r8)
 4004964:	d8c02015 	stw	r3,128(sp)
 4004968:	dc401f15 	stw	r17,124(sp)
 400496c:	008001c4 	movi	r2,7
 4004970:	14416b16 	blt	r2,r17,4004f20 <___vfprintf_internal_r+0x15e8>
 4004974:	42000204 	addi	r8,r8,8
 4004978:	d8803717 	ldw	r2,220(sp)
 400497c:	d9003417 	ldw	r4,208(sp)
 4004980:	8c400044 	addi	r17,r17,1
 4004984:	10c7883a 	add	r3,r2,r3
 4004988:	40800115 	stw	r2,4(r8)
 400498c:	41000015 	stw	r4,0(r8)
 4004990:	d8c02015 	stw	r3,128(sp)
 4004994:	dc401f15 	stw	r17,124(sp)
 4004998:	008001c4 	movi	r2,7
 400499c:	14416916 	blt	r2,r17,4004f44 <___vfprintf_internal_r+0x160c>
 40049a0:	45800204 	addi	r22,r8,8
 40049a4:	d9003617 	ldw	r4,216(sp)
 40049a8:	d9403817 	ldw	r5,224(sp)
 40049ac:	000d883a 	mov	r6,zero
 40049b0:	000f883a 	mov	r7,zero
 40049b4:	d8c03c15 	stw	r3,240(sp)
 40049b8:	400fe640 	call	400fe64 <__eqdf2>
 40049bc:	d8c03c17 	ldw	r3,240(sp)
 40049c0:	1000bc26 	beq	r2,zero,4004cb4 <___vfprintf_internal_r+0x137c>
 40049c4:	d9403317 	ldw	r5,204(sp)
 40049c8:	84000044 	addi	r16,r16,1
 40049cc:	8c400044 	addi	r17,r17,1
 40049d0:	28bfffc4 	addi	r2,r5,-1
 40049d4:	1887883a 	add	r3,r3,r2
 40049d8:	b0800115 	stw	r2,4(r22)
 40049dc:	b4000015 	stw	r16,0(r22)
 40049e0:	d8c02015 	stw	r3,128(sp)
 40049e4:	dc401f15 	stw	r17,124(sp)
 40049e8:	008001c4 	movi	r2,7
 40049ec:	14414316 	blt	r2,r17,4004efc <___vfprintf_internal_r+0x15c4>
 40049f0:	b5800204 	addi	r22,r22,8
 40049f4:	d9003a17 	ldw	r4,232(sp)
 40049f8:	df0022c4 	addi	fp,sp,139
 40049fc:	8c400044 	addi	r17,r17,1
 4004a00:	20c7883a 	add	r3,r4,r3
 4004a04:	b7000015 	stw	fp,0(r22)
 4004a08:	b1000115 	stw	r4,4(r22)
 4004a0c:	d8c02015 	stw	r3,128(sp)
 4004a10:	dc401f15 	stw	r17,124(sp)
 4004a14:	008001c4 	movi	r2,7
 4004a18:	14400e16 	blt	r2,r17,4004a54 <___vfprintf_internal_r+0x111c>
 4004a1c:	b2000204 	addi	r8,r22,8
 4004a20:	003e3a06 	br	400430c <__alt_mem_onchip_memory2_0+0xfc00230c>
 4004a24:	010100b4 	movhi	r4,1026
 4004a28:	2132da84 	addi	r4,r4,-13462
 4004a2c:	d9002b15 	stw	r4,172(sp)
 4004a30:	d9002b17 	ldw	r4,172(sp)
 4004a34:	1c07883a 	add	r3,r3,r16
 4004a38:	44000115 	stw	r16,4(r8)
 4004a3c:	41000015 	stw	r4,0(r8)
 4004a40:	10800044 	addi	r2,r2,1
 4004a44:	d8c02015 	stw	r3,128(sp)
 4004a48:	d8801f15 	stw	r2,124(sp)
 4004a4c:	010001c4 	movi	r4,7
 4004a50:	20be2d0e 	bge	r4,r2,4004308 <__alt_mem_onchip_memory2_0+0xfc002308>
 4004a54:	d9002c17 	ldw	r4,176(sp)
 4004a58:	d9801e04 	addi	r6,sp,120
 4004a5c:	b80b883a 	mov	r5,r23
 4004a60:	400c3400 	call	400c340 <__sprint_r>
 4004a64:	103cb61e 	bne	r2,zero,4003d40 <__alt_mem_onchip_memory2_0+0xfc001d40>
 4004a68:	d8c02017 	ldw	r3,128(sp)
 4004a6c:	da000404 	addi	r8,sp,16
 4004a70:	003e2606 	br	400430c <__alt_mem_onchip_memory2_0+0xfc00230c>
 4004a74:	d9002c17 	ldw	r4,176(sp)
 4004a78:	d9801e04 	addi	r6,sp,120
 4004a7c:	b80b883a 	mov	r5,r23
 4004a80:	400c3400 	call	400c340 <__sprint_r>
 4004a84:	103e5d26 	beq	r2,zero,40043fc <__alt_mem_onchip_memory2_0+0xfc0023fc>
 4004a88:	003cad06 	br	4003d40 <__alt_mem_onchip_memory2_0+0xfc001d40>
 4004a8c:	d9002c17 	ldw	r4,176(sp)
 4004a90:	d9801e04 	addi	r6,sp,120
 4004a94:	b80b883a 	mov	r5,r23
 4004a98:	400c3400 	call	400c340 <__sprint_r>
 4004a9c:	103ca81e 	bne	r2,zero,4003d40 <__alt_mem_onchip_memory2_0+0xfc001d40>
 4004aa0:	d8c02017 	ldw	r3,128(sp)
 4004aa4:	da000404 	addi	r8,sp,16
 4004aa8:	003e0b06 	br	40042d8 <__alt_mem_onchip_memory2_0+0xfc0022d8>
 4004aac:	d9002c17 	ldw	r4,176(sp)
 4004ab0:	d9801e04 	addi	r6,sp,120
 4004ab4:	b80b883a 	mov	r5,r23
 4004ab8:	400c3400 	call	400c340 <__sprint_r>
 4004abc:	103ca01e 	bne	r2,zero,4003d40 <__alt_mem_onchip_memory2_0+0xfc001d40>
 4004ac0:	d8c02017 	ldw	r3,128(sp)
 4004ac4:	da000404 	addi	r8,sp,16
 4004ac8:	003dbd06 	br	40041c0 <__alt_mem_onchip_memory2_0+0xfc0021c0>
 4004acc:	d9002c17 	ldw	r4,176(sp)
 4004ad0:	d9801e04 	addi	r6,sp,120
 4004ad4:	b80b883a 	mov	r5,r23
 4004ad8:	400c3400 	call	400c340 <__sprint_r>
 4004adc:	103c981e 	bne	r2,zero,4003d40 <__alt_mem_onchip_memory2_0+0xfc001d40>
 4004ae0:	d8c02017 	ldw	r3,128(sp)
 4004ae4:	da000404 	addi	r8,sp,16
 4004ae8:	003dc306 	br	40041f8 <__alt_mem_onchip_memory2_0+0xfc0021f8>
 4004aec:	d8802917 	ldw	r2,164(sp)
 4004af0:	d8002785 	stb	zero,158(sp)
 4004af4:	103f0616 	blt	r2,zero,4004710 <__alt_mem_onchip_memory2_0+0xfc002710>
 4004af8:	00ffdfc4 	movi	r3,-129
 4004afc:	9d84b03a 	or	r2,r19,r22
 4004b00:	90e4703a 	and	r18,r18,r3
 4004b04:	103c6b26 	beq	r2,zero,4003cb4 <__alt_mem_onchip_memory2_0+0xfc001cb4>
 4004b08:	0039883a 	mov	fp,zero
 4004b0c:	003e7406 	br	40044e0 <__alt_mem_onchip_memory2_0+0xfc0024e0>
 4004b10:	9080040c 	andi	r2,r18,16
 4004b14:	1001b326 	beq	r2,zero,40051e4 <___vfprintf_internal_r+0x18ac>
 4004b18:	d9002d17 	ldw	r4,180(sp)
 4004b1c:	d9402917 	ldw	r5,164(sp)
 4004b20:	d8002785 	stb	zero,158(sp)
 4004b24:	20800104 	addi	r2,r4,4
 4004b28:	24c00017 	ldw	r19,0(r4)
 4004b2c:	002d883a 	mov	r22,zero
 4004b30:	2801b516 	blt	r5,zero,4005208 <___vfprintf_internal_r+0x18d0>
 4004b34:	00ffdfc4 	movi	r3,-129
 4004b38:	d8802d15 	stw	r2,180(sp)
 4004b3c:	90e4703a 	and	r18,r18,r3
 4004b40:	983d2726 	beq	r19,zero,4003fe0 <__alt_mem_onchip_memory2_0+0xfc001fe0>
 4004b44:	0039883a 	mov	fp,zero
 4004b48:	003d2a06 	br	4003ff4 <__alt_mem_onchip_memory2_0+0xfc001ff4>
 4004b4c:	dc402617 	ldw	r17,152(sp)
 4004b50:	0441d30e 	bge	zero,r17,40052a0 <___vfprintf_internal_r+0x1968>
 4004b54:	dc403217 	ldw	r17,200(sp)
 4004b58:	d8803317 	ldw	r2,204(sp)
 4004b5c:	1440010e 	bge	r2,r17,4004b64 <___vfprintf_internal_r+0x122c>
 4004b60:	1023883a 	mov	r17,r2
